Component: ARM Compiler 5.06 update 6 (build 750) Tool: armlink [4d35ed]

==============================================================================

Section Cross References

    startup_stm32f10x_hd.o(RESET) refers to startup_stm32f10x_hd.o(STACK) for __initial_sp
    startup_stm32f10x_hd.o(RESET) refers to startup_stm32f10x_hd.o(.text) for Reset_Handler
    startup_stm32f10x_hd.o(RESET) refers to stm32f10x_it.o(i.NMI_Handler) for NMI_Handler
    startup_stm32f10x_hd.o(RESET) refers to stm32f10x_it.o(i.HardFault_Handler) for HardFault_Handler
    startup_stm32f10x_hd.o(RESET) refers to stm32f10x_it.o(i.MemManage_Handler) for MemManage_Handler
    startup_stm32f10x_hd.o(RESET) refers to stm32f10x_it.o(i.BusFault_Handler) for BusFault_Handler
    startup_stm32f10x_hd.o(RESET) refers to stm32f10x_it.o(i.UsageFault_Handler) for UsageFault_Handler
    startup_stm32f10x_hd.o(RESET) refers to stm32f10x_it.o(i.SVC_Handler) for SVC_Handler
    startup_stm32f10x_hd.o(RESET) refers to stm32f10x_it.o(i.DebugMon_Handler) for DebugMon_Handler
    startup_stm32f10x_hd.o(RESET) refers to stm32f10x_it.o(i.SysTick_Handler) for SysTick_Handler
    startup_stm32f10x_hd.o(RESET) refers to stm32f10x_it.o(i.DMA1_Channel1_IRQHandler) for DMA1_Channel1_IRQHandler
    startup_stm32f10x_hd.o(RESET) refers to stm32f10x_it.o(i.DMA1_Channel2_IRQHandler) for DMA1_Channel2_IRQHandler
    startup_stm32f10x_hd.o(RESET) refers to stm32f10x_it.o(i.TIM4_IRQHandler) for TIM4_IRQHandler
    startup_stm32f10x_hd.o(RESET) refers to stm32f10x_it.o(i.USART1_IRQHandler) for USART1_IRQHandler
    startup_stm32f10x_hd.o(RESET) refers to stm32f10x_it.o(i.USART2_IRQHandler) for USART2_IRQHandler
    startup_stm32f10x_hd.o(RESET) refers to stm32f10x_it.o(i.USART3_IRQHandler) for USART3_IRQHandler
    startup_stm32f10x_hd.o(.text) refers to system_stm32f10x.o(i.SystemInit) for SystemInit
    startup_stm32f10x_hd.o(.text) refers to entry.o(.ARM.Collect$$$$00000000) for __main
    stm32f10x_adc.o(i.ADC_DeInit) refers to stm32f10x_rcc.o(i.RCC_APB2PeriphResetCmd) for RCC_APB2PeriphResetCmd
    stm32f10x_bkp.o(i.BKP_DeInit) refers to stm32f10x_rcc.o(i.RCC_BackupResetCmd) for RCC_BackupResetCmd
    stm32f10x_can.o(i.CAN_DeInit) refers to stm32f10x_rcc.o(i.RCC_APB1PeriphResetCmd) for RCC_APB1PeriphResetCmd
    stm32f10x_can.o(i.CAN_GetITStatus) refers to stm32f10x_can.o(i.CheckITStatus) for CheckITStatus
    stm32f10x_cec.o(i.CEC_DeInit) refers to stm32f10x_rcc.o(i.RCC_APB1PeriphResetCmd) for RCC_APB1PeriphResetCmd
    stm32f10x_dac.o(i.DAC_DeInit) refers to stm32f10x_rcc.o(i.RCC_APB1PeriphResetCmd) for RCC_APB1PeriphResetCmd
    stm32f10x_flash.o(i.FLASH_EnableWriteProtection) refers to stm32f10x_flash.o(i.FLASH_WaitForLastOperation) for FLASH_WaitForLastOperation
    stm32f10x_flash.o(i.FLASH_EraseAllBank1Pages) refers to stm32f10x_flash.o(i.FLASH_WaitForLastBank1Operation) for FLASH_WaitForLastBank1Operation
    stm32f10x_flash.o(i.FLASH_EraseAllPages) refers to stm32f10x_flash.o(i.FLASH_WaitForLastOperation) for FLASH_WaitForLastOperation
    stm32f10x_flash.o(i.FLASH_EraseOptionBytes) refers to stm32f10x_flash.o(i.FLASH_GetReadOutProtectionStatus) for FLASH_GetReadOutProtectionStatus
    stm32f10x_flash.o(i.FLASH_EraseOptionBytes) refers to stm32f10x_flash.o(i.FLASH_WaitForLastOperation) for FLASH_WaitForLastOperation
    stm32f10x_flash.o(i.FLASH_ErasePage) refers to stm32f10x_flash.o(i.FLASH_WaitForLastOperation) for FLASH_WaitForLastOperation
    stm32f10x_flash.o(i.FLASH_ProgramHalfWord) refers to stm32f10x_flash.o(i.FLASH_WaitForLastOperation) for FLASH_WaitForLastOperation
    stm32f10x_flash.o(i.FLASH_ProgramOptionByteData) refers to stm32f10x_flash.o(i.FLASH_WaitForLastOperation) for FLASH_WaitForLastOperation
    stm32f10x_flash.o(i.FLASH_ProgramWord) refers to stm32f10x_flash.o(i.FLASH_WaitForLastOperation) for FLASH_WaitForLastOperation
    stm32f10x_flash.o(i.FLASH_ReadOutProtection) refers to stm32f10x_flash.o(i.FLASH_WaitForLastOperation) for FLASH_WaitForLastOperation
    stm32f10x_flash.o(i.FLASH_UserOptionByteConfig) refers to stm32f10x_flash.o(i.FLASH_WaitForLastOperation) for FLASH_WaitForLastOperation
    stm32f10x_flash.o(i.FLASH_WaitForLastBank1Operation) refers to stm32f10x_flash.o(i.FLASH_GetBank1Status) for FLASH_GetBank1Status
    stm32f10x_flash.o(i.FLASH_WaitForLastOperation) refers to stm32f10x_flash.o(i.FLASH_GetBank1Status) for FLASH_GetBank1Status
    stm32f10x_gpio.o(i.GPIO_AFIODeInit) refers to stm32f10x_rcc.o(i.RCC_APB2PeriphResetCmd) for RCC_APB2PeriphResetCmd
    stm32f10x_gpio.o(i.GPIO_DeInit) refers to stm32f10x_rcc.o(i.RCC_APB2PeriphResetCmd) for RCC_APB2PeriphResetCmd
    stm32f10x_i2c.o(i.I2C_DeInit) refers to stm32f10x_rcc.o(i.RCC_APB1PeriphResetCmd) for RCC_APB1PeriphResetCmd
    stm32f10x_i2c.o(i.I2C_Init) refers to stm32f10x_rcc.o(i.RCC_GetClocksFreq) for RCC_GetClocksFreq
    stm32f10x_pwr.o(i.PWR_DeInit) refers to stm32f10x_rcc.o(i.RCC_APB1PeriphResetCmd) for RCC_APB1PeriphResetCmd
    stm32f10x_rcc.o(i.RCC_GetClocksFreq) refers to stm32f10x_rcc.o(.data) for .data
    stm32f10x_rcc.o(i.RCC_WaitForHSEStartUp) refers to stm32f10x_rcc.o(i.RCC_GetFlagStatus) for RCC_GetFlagStatus
    stm32f10x_rtc.o(i.RTC_SetAlarm) refers to stm32f10x_rtc.o(i.RTC_EnterConfigMode) for RTC_EnterConfigMode
    stm32f10x_rtc.o(i.RTC_SetAlarm) refers to stm32f10x_rtc.o(i.RTC_ExitConfigMode) for RTC_ExitConfigMode
    stm32f10x_rtc.o(i.RTC_SetCounter) refers to stm32f10x_rtc.o(i.RTC_EnterConfigMode) for RTC_EnterConfigMode
    stm32f10x_rtc.o(i.RTC_SetCounter) refers to stm32f10x_rtc.o(i.RTC_ExitConfigMode) for RTC_ExitConfigMode
    stm32f10x_rtc.o(i.RTC_SetPrescaler) refers to stm32f10x_rtc.o(i.RTC_EnterConfigMode) for RTC_EnterConfigMode
    stm32f10x_rtc.o(i.RTC_SetPrescaler) refers to stm32f10x_rtc.o(i.RTC_ExitConfigMode) for RTC_ExitConfigMode
    stm32f10x_spi.o(i.I2S_Init) refers to stm32f10x_rcc.o(i.RCC_GetClocksFreq) for RCC_GetClocksFreq
    stm32f10x_spi.o(i.SPI_I2S_DeInit) refers to stm32f10x_rcc.o(i.RCC_APB2PeriphResetCmd) for RCC_APB2PeriphResetCmd
    stm32f10x_spi.o(i.SPI_I2S_DeInit) refers to stm32f10x_rcc.o(i.RCC_APB1PeriphResetCmd) for RCC_APB1PeriphResetCmd
    stm32f10x_tim.o(i.TIM_DeInit) refers to stm32f10x_rcc.o(i.RCC_APB1PeriphResetCmd) for RCC_APB1PeriphResetCmd
    stm32f10x_tim.o(i.TIM_DeInit) refers to stm32f10x_rcc.o(i.RCC_APB2PeriphResetCmd) for RCC_APB2PeriphResetCmd
    stm32f10x_tim.o(i.TIM_ETRClockMode1Config) refers to stm32f10x_tim.o(i.TIM_ETRConfig) for TIM_ETRConfig
    stm32f10x_tim.o(i.TIM_ETRClockMode2Config) refers to stm32f10x_tim.o(i.TIM_ETRConfig) for TIM_ETRConfig
    stm32f10x_tim.o(i.TIM_ICInit) refers to stm32f10x_tim.o(i.TI1_Config) for TI1_Config
    stm32f10x_tim.o(i.TIM_ICInit) refers to stm32f10x_tim.o(i.TIM_SetIC1Prescaler) for TIM_SetIC1Prescaler
    stm32f10x_tim.o(i.TIM_ICInit) refers to stm32f10x_tim.o(i.TI2_Config) for TI2_Config
    stm32f10x_tim.o(i.TIM_ICInit) refers to stm32f10x_tim.o(i.TIM_SetIC2Prescaler) for TIM_SetIC2Prescaler
    stm32f10x_tim.o(i.TIM_ICInit) refers to stm32f10x_tim.o(i.TIM_SetIC3Prescaler) for TIM_SetIC3Prescaler
    stm32f10x_tim.o(i.TIM_ICInit) refers to stm32f10x_tim.o(i.TIM_SetIC4Prescaler) for TIM_SetIC4Prescaler
    stm32f10x_tim.o(i.TIM_ITRxExternalClockConfig) refers to stm32f10x_tim.o(i.TIM_SelectInputTrigger) for TIM_SelectInputTrigger
    stm32f10x_tim.o(i.TIM_PWMIConfig) refers to stm32f10x_tim.o(i.TI2_Config) for TI2_Config
    stm32f10x_tim.o(i.TIM_PWMIConfig) refers to stm32f10x_tim.o(i.TIM_SetIC2Prescaler) for TIM_SetIC2Prescaler
    stm32f10x_tim.o(i.TIM_PWMIConfig) refers to stm32f10x_tim.o(i.TI1_Config) for TI1_Config
    stm32f10x_tim.o(i.TIM_PWMIConfig) refers to stm32f10x_tim.o(i.TIM_SetIC1Prescaler) for TIM_SetIC1Prescaler
    stm32f10x_tim.o(i.TIM_TIxExternalClockConfig) refers to stm32f10x_tim.o(i.TI1_Config) for TI1_Config
    stm32f10x_tim.o(i.TIM_TIxExternalClockConfig) refers to stm32f10x_tim.o(i.TIM_SelectInputTrigger) for TIM_SelectInputTrigger
    stm32f10x_tim.o(i.TIM_TIxExternalClockConfig) refers to stm32f10x_tim.o(i.TI2_Config) for TI2_Config
    stm32f10x_usart.o(i.USART_DeInit) refers to stm32f10x_rcc.o(i.RCC_APB2PeriphResetCmd) for RCC_APB2PeriphResetCmd
    stm32f10x_usart.o(i.USART_DeInit) refers to stm32f10x_rcc.o(i.RCC_APB1PeriphResetCmd) for RCC_APB1PeriphResetCmd
    stm32f10x_usart.o(i.USART_Init) refers to stm32f10x_rcc.o(i.RCC_GetClocksFreq) for RCC_GetClocksFreq
    stm32f10x_wwdg.o(i.WWDG_DeInit) refers to stm32f10x_rcc.o(i.RCC_APB1PeriphResetCmd) for RCC_APB1PeriphResetCmd
    main.o(i.SCPI_Write) refers to stm32f10x_usart.o(i.USART_SendData) for USART_SendData
    main.o(i.SCPI_Write) refers to stm32f10x_usart.o(i.USART_GetFlagStatus) for USART_GetFlagStatus
    main.o(i.iap_load_app) refers to main.o(.emb_text) for MSR_MSP
    main.o(i.iap_load_app) refers to main.o(.data) for .data
    main.o(i.main) refers to misc.o(i.NVIC_SetVectorTable) for NVIC_SetVectorTable
    main.o(i.main) refers to clock.o(i.RCC_Configuration) for RCC_Configuration
    main.o(i.main) refers to bsp_systick.o(i.SysTick_Init) for SysTick_Init
    main.o(i.main) refers to gpio.o(i.GPIO_Conf) for GPIO_Conf
    main.o(i.main) refers to dac.o(i.AD5541_GPIOCoing) for AD5541_GPIOCoing
    main.o(i.main) refers to ad7689.o(i.AD7689_InitializeSPI2) for AD7689_InitializeSPI2
    main.o(i.main) refers to adc.o(i.ADC1_DMA_Init) for ADC1_DMA_Init
    main.o(i.main) refers to iic_24c01.o(i.i2c_CfgGpio) for i2c_CfgGpio
    main.o(i.main) refers to flash.o(i.EEPROM_READ_Coeff) for EEPROM_READ_Coeff
    main.o(i.main) refers to usart.o(i.USART_Configuration) for USART_Configuration
    main.o(i.main) refers to usart.o(i.USART2_Configuration) for USART2_Configuration
    main.o(i.main) refers to usart.o(i.USART3_Configuration) for USART3_Configuration
    main.o(i.main) refers to tim6.o(i.TIM6_Config) for TIM6_Config
    main.o(i.main) refers to iwdg.o(i.IWDG_Inte) for IWDG_Inte
    main.o(i.main) refers to parser.o(i.SCPI_Init) for SCPI_Init
    main.o(i.main) refers to flash.o(i.Write_bootmode) for Write_bootmode
    main.o(i.main) refers to stm32f10x_iwdg.o(i.IWDG_ReloadCounter) for IWDG_ReloadCounter
    main.o(i.main) refers to dac.o(i.AD5541_Send) for AD5541_Send
    main.o(i.main) refers to ad7689.o(i.AD7689_Scan_CH) for AD7689_Scan_CH
    main.o(i.main) refers to modbus.o(i.Transformation_ADC) for Transformation_ADC
    main.o(i.main) refers to adc.o(i.ADC_CH_Scan) for ADC_CH_Scan
    main.o(i.main) refers to fan_pro.o(i.Temp_Comapre) for Temp_Comapre
    main.o(i.main) refers to menu.o(i.worke_mode) for worke_mode
    main.o(i.main) refers to flash.o(i.Write_bootflag) for Write_bootflag
    main.o(i.main) refers to main.o(i.iap_load_app) for iap_load_app
    main.o(i.main) refers to fan_pro.o(i.All_protect) for All_protect
    main.o(i.main) refers to scpi-def.o(.bss) for scpi_error_queue_data
    main.o(i.main) refers to scpi-def.o(.bss) for scpi_input_buffer
    main.o(i.main) refers to units.o(.constdata) for scpi_units_def
    main.o(i.main) refers to scpi-def.o(.data) for scpi_interface
    main.o(i.main) refers to scpi-def.o(.constdata) for scpi_commands
    main.o(i.main) refers to scpi-def.o(.bss) for scpi_context
    main.o(i.main) refers to modbus.o(.bss) for Run_Control
    main.o(i.main) refers to modbus.o(.data) for Contr_DACVlue
    main.o(i.main) refers to menu.o(.data) for SWDelay
    main.o(i.main) refers to main.o(.data) for .data
    stm32f10x_it.o(i.DMA1_Channel1_IRQHandler) refers to stm32f10x_dma.o(i.DMA_ClearITPendingBit) for DMA_ClearITPendingBit
    stm32f10x_it.o(i.DMA1_Channel1_IRQHandler) refers to main.o(.data) for flagA
    stm32f10x_it.o(i.DMA1_Channel2_IRQHandler) refers to stm32f10x_dma.o(i.DMA_ClearITPendingBit) for DMA_ClearITPendingBit
    stm32f10x_it.o(i.DMA1_Channel2_IRQHandler) refers to main.o(.data) for flagB
    stm32f10x_it.o(i.SysTick_Handler) refers to bsp_systick.o(i.TimingDelay_Decrement) for TimingDelay_Decrement
    stm32f10x_it.o(i.SysTick_Handler) refers to main.o(.data) for flagB
    stm32f10x_it.o(i.SysTick_Handler) refers to usart.o(.data) for t_USART
    stm32f10x_it.o(i.SysTick_Handler) refers to usart.o(.data) for UART_Buffer_Size
    stm32f10x_it.o(i.TIM4_IRQHandler) refers to stm32f10x_tim.o(i.TIM_ClearITPendingBit) for TIM_ClearITPendingBit
    stm32f10x_it.o(i.TIM4_IRQHandler) refers to stm32f10x_it.o(.data) for .data
    stm32f10x_it.o(i.TIM4_IRQHandler) refers to main.o(.data) for flagB
    stm32f10x_it.o(i.TIM4_IRQHandler) refers to modbus.o(.bss) for Run_Control
    stm32f10x_it.o(i.USART1_IRQHandler) refers to stm32f10x_usart.o(i.USART_GetITStatus) for USART_GetITStatus
    stm32f10x_it.o(i.USART1_IRQHandler) refers to stm32f10x_usart.o(i.USART_ClearITPendingBit) for USART_ClearITPendingBit
    stm32f10x_it.o(i.USART1_IRQHandler) refers to stm32f10x_usart.o(i.USART_ReceiveData) for USART_ReceiveData
    stm32f10x_it.o(i.USART1_IRQHandler) refers to modbus.o(i.UART1_Action) for UART1_Action
    stm32f10x_it.o(i.USART1_IRQHandler) refers to flash.o(i.Write_ADDR) for Write_ADDR
    stm32f10x_it.o(i.USART1_IRQHandler) refers to memseta.o(.text) for __aeabi_memclr
    stm32f10x_it.o(i.USART1_IRQHandler) refers to parser.o(i.SCPI_Input) for SCPI_Input
    stm32f10x_it.o(i.USART1_IRQHandler) refers to main.o(.data) for flagB
    stm32f10x_it.o(i.USART1_IRQHandler) refers to modbus.o(.bss) for Run_Control
    stm32f10x_it.o(i.USART1_IRQHandler) refers to usart.o(.bss) for UART_Buffer_Rece1
    stm32f10x_it.o(i.USART1_IRQHandler) refers to stm32f10x_it.o(.data) for .data
    stm32f10x_it.o(i.USART1_IRQHandler) refers to usart.o(.data) for t_USART
    stm32f10x_it.o(i.USART1_IRQHandler) refers to usart.o(.data) for UART_Buffer_Size
    stm32f10x_it.o(i.USART1_IRQHandler) refers to scpi-def.o(.bss) for scpi_context
    stm32f10x_it.o(i.USART2_IRQHandler) refers to stm32f10x_usart.o(i.USART_GetITStatus) for USART_GetITStatus
    stm32f10x_it.o(i.USART2_IRQHandler) refers to stm32f10x_usart.o(i.USART_ClearITPendingBit) for USART_ClearITPendingBit
    stm32f10x_it.o(i.USART2_IRQHandler) refers to stm32f10x_usart.o(i.USART_ReceiveData) for USART_ReceiveData
    stm32f10x_it.o(i.USART2_IRQHandler) refers to modbus.o(i.UART_Action) for UART_Action
    stm32f10x_it.o(i.USART2_IRQHandler) refers to usart.o(i.Baud_SET) for Baud_SET
    stm32f10x_it.o(i.USART2_IRQHandler) refers to flash.o(i.Write_ADDR) for Write_ADDR
    stm32f10x_it.o(i.USART2_IRQHandler) refers to main.o(.data) for flagB
    stm32f10x_it.o(i.USART2_IRQHandler) refers to usart.o(.bss) for UART_Buffer_Rece
    stm32f10x_it.o(i.USART2_IRQHandler) refers to usart.o(.data) for UART_Buffer_Size
    stm32f10x_it.o(i.USART2_IRQHandler) refers to usart.o(.data) for t_USART
    stm32f10x_it.o(i.USART2_IRQHandler) refers to main.o(.data) for flagA
    stm32f10x_it.o(i.USART3_IRQHandler) refers to stm32f10x_usart.o(i.USART_GetITStatus) for USART_GetITStatus
    stm32f10x_it.o(i.USART3_IRQHandler) refers to stm32f10x_usart.o(i.USART_ClearITPendingBit) for USART_ClearITPendingBit
    stm32f10x_it.o(i.USART3_IRQHandler) refers to stm32f10x_usart.o(i.USART_ReceiveData) for USART_ReceiveData
    stm32f10x_it.o(i.USART3_IRQHandler) refers to modbus.o(i.UART3_Action) for UART3_Action
    stm32f10x_it.o(i.USART3_IRQHandler) refers to flash.o(i.Write_ADDR) for Write_ADDR
    stm32f10x_it.o(i.USART3_IRQHandler) refers to memseta.o(.text) for __aeabi_memclr
    stm32f10x_it.o(i.USART3_IRQHandler) refers to usart.o(.bss) for UART_Buffer_Rece1
    stm32f10x_it.o(i.USART3_IRQHandler) refers to usart.o(.data) for UART_Buffer_Size
    stm32f10x_it.o(i.USART3_IRQHandler) refers to modbus.o(.bss) for Run_Control
    stm32f10x_it.o(i.USART3_IRQHandler) refers to stm32f10x_it.o(.data) for .data
    stm32f10x_it.o(i.USART3_IRQHandler) refers to usart.o(.data) for t_USART
    stm32f10x_it.o(i.USART3_IRQHandler) refers to main.o(.data) for flagB
    system_stm32f10x.o(i.SystemCoreClockUpdate) refers to system_stm32f10x.o(.data) for .data
    system_stm32f10x.o(i.SystemInit) refers to system_stm32f10x.o(i.SetSysClockTo72) for SetSysClockTo72
    adc.o(i.ADC1_DMA_Init) refers to stm32f10x_adc.o(i.ADC_DeInit) for ADC_DeInit
    adc.o(i.ADC1_DMA_Init) refers to stm32f10x_rcc.o(i.RCC_APB2PeriphClockCmd) for RCC_APB2PeriphClockCmd
    adc.o(i.ADC1_DMA_Init) refers to stm32f10x_rcc.o(i.RCC_AHBPeriphClockCmd) for RCC_AHBPeriphClockCmd
    adc.o(i.ADC1_DMA_Init) refers to stm32f10x_gpio.o(i.GPIO_Init) for GPIO_Init
    adc.o(i.ADC1_DMA_Init) refers to stm32f10x_dma.o(i.DMA_DeInit) for DMA_DeInit
    adc.o(i.ADC1_DMA_Init) refers to stm32f10x_dma.o(i.DMA_Init) for DMA_Init
    adc.o(i.ADC1_DMA_Init) refers to stm32f10x_dma.o(i.DMA_Cmd) for DMA_Cmd
    adc.o(i.ADC1_DMA_Init) refers to stm32f10x_dma.o(i.DMA_ITConfig) for DMA_ITConfig
    adc.o(i.ADC1_DMA_Init) refers to adc.o(i.DAM1_ADC_NVIC) for DAM1_ADC_NVIC
    adc.o(i.ADC1_DMA_Init) refers to stm32f10x_adc.o(i.ADC_DMACmd) for ADC_DMACmd
    adc.o(i.ADC1_DMA_Init) refers to stm32f10x_adc.o(i.ADC_Init) for ADC_Init
    adc.o(i.ADC1_DMA_Init) refers to stm32f10x_rcc.o(i.RCC_ADCCLKConfig) for RCC_ADCCLKConfig
    adc.o(i.ADC1_DMA_Init) refers to stm32f10x_adc.o(i.ADC_RegularChannelConfig) for ADC_RegularChannelConfig
    adc.o(i.ADC1_DMA_Init) refers to stm32f10x_adc.o(i.ADC_Cmd) for ADC_Cmd
    adc.o(i.ADC1_DMA_Init) refers to stm32f10x_adc.o(i.ADC_ResetCalibration) for ADC_ResetCalibration
    adc.o(i.ADC1_DMA_Init) refers to stm32f10x_adc.o(i.ADC_StartCalibration) for ADC_StartCalibration
    adc.o(i.ADC1_DMA_Init) refers to stm32f10x_adc.o(i.ADC_GetResetCalibrationStatus) for ADC_GetResetCalibrationStatus
    adc.o(i.ADC1_DMA_Init) refers to stm32f10x_adc.o(i.ADC_GetCalibrationStatus) for ADC_GetCalibrationStatus
    adc.o(i.ADC1_DMA_Init) refers to stm32f10x_adc.o(i.ADC_SoftwareStartConvCmd) for ADC_SoftwareStartConvCmd
    adc.o(i.ADC1_DMA_Init) refers to adc.o(.bss) for .bss
    adc.o(i.ADC_CH_Scan) refers to adc.o(.bss) for .bss
    adc.o(i.ADC_CH_Scan) refers to adc.o(.data) for .data
    adc.o(i.DAM1_ADC_NVIC) refers to misc.o(i.NVIC_Init) for NVIC_Init
    beep.o(i.BEEP_Tiggr) refers to main.o(.data) for flagA
    beep.o(i.BEEP_Tiggr) refers to beep.o(.data) for .data
    bsp_systick.o(i.Delay_us) refers to bsp_systick.o(.data) for .data
    bsp_systick.o(i.SysTick_Init) refers to system_stm32f10x.o(.data) for SystemCoreClock
    bsp_systick.o(i.TimingDelay_Decrement) refers to bsp_systick.o(.data) for .data
    at24c01.o(i.EEPROM_READ_Byte) refers to iic_24c01.o(i.i2c_Start) for i2c_Start
    at24c01.o(i.EEPROM_READ_Byte) refers to iic_24c01.o(i.i2c_SendByte) for i2c_SendByte
    at24c01.o(i.EEPROM_READ_Byte) refers to iic_24c01.o(i.i2c_WaitAck) for i2c_WaitAck
    at24c01.o(i.EEPROM_READ_Byte) refers to iic_24c01.o(i.i2c_Stop) for i2c_Stop
    at24c01.o(i.EEPROM_READ_Byte) refers to iic_24c01.o(i.i2c_ReadByte) for i2c_ReadByte
    at24c01.o(i.EEPROM_READ_Byte) refers to iic_24c01.o(i.i2c_NAck) for i2c_NAck
    at24c01.o(i.EEPROM_READ_Byte) refers to at24c01.o(.data) for .data
    at24c01.o(i.EEPROM_WriteByte) refers to iic_24c01.o(i.i2c_Stop) for i2c_Stop
    at24c01.o(i.EEPROM_WriteByte) refers to iic_24c01.o(i.i2c_Start) for i2c_Start
    at24c01.o(i.EEPROM_WriteByte) refers to iic_24c01.o(i.i2c_SendByte) for i2c_SendByte
    at24c01.o(i.EEPROM_WriteByte) refers to iic_24c01.o(i.i2c_WaitAck) for i2c_WaitAck
    at24c01.o(i.ReadBytes) refers to iic_24c01.o(i.i2c_Start) for i2c_Start
    at24c01.o(i.ReadBytes) refers to iic_24c01.o(i.i2c_SendByte) for i2c_SendByte
    at24c01.o(i.ReadBytes) refers to iic_24c01.o(i.i2c_WaitAck) for i2c_WaitAck
    at24c01.o(i.ReadBytes) refers to iic_24c01.o(i.i2c_Stop) for i2c_Stop
    at24c01.o(i.ReadBytes) refers to iic_24c01.o(i.i2c_ReadByte) for i2c_ReadByte
    at24c01.o(i.ReadBytes) refers to iic_24c01.o(i.i2c_Ack) for i2c_Ack
    at24c01.o(i.ReadBytes) refers to iic_24c01.o(i.i2c_NAck) for i2c_NAck
    at24c01.o(i.WriteBytes) refers to iic_24c01.o(i.i2c_Stop) for i2c_Stop
    at24c01.o(i.WriteBytes) refers to iic_24c01.o(i.i2c_Start) for i2c_Start
    at24c01.o(i.WriteBytes) refers to iic_24c01.o(i.i2c_SendByte) for i2c_SendByte
    at24c01.o(i.WriteBytes) refers to iic_24c01.o(i.i2c_WaitAck) for i2c_WaitAck
    at24c01.o(i.ee_CheckOk) refers to iic_24c01.o(i.i2c_CheckDevice) for i2c_CheckDevice
    at24c01.o(i.ee_CheckOk) refers to iic_24c01.o(i.i2c_Stop) for i2c_Stop
    clock.o(i.RCC_Configuration) refers to stm32f10x_rcc.o(i.RCC_DeInit) for RCC_DeInit
    clock.o(i.RCC_Configuration) refers to stm32f10x_rcc.o(i.RCC_HSEConfig) for RCC_HSEConfig
    clock.o(i.RCC_Configuration) refers to stm32f10x_rcc.o(i.RCC_WaitForHSEStartUp) for RCC_WaitForHSEStartUp
    clock.o(i.RCC_Configuration) refers to stm32f10x_rcc.o(i.RCC_HCLKConfig) for RCC_HCLKConfig
    clock.o(i.RCC_Configuration) refers to stm32f10x_rcc.o(i.RCC_PCLK2Config) for RCC_PCLK2Config
    clock.o(i.RCC_Configuration) refers to stm32f10x_rcc.o(i.RCC_PCLK1Config) for RCC_PCLK1Config
    clock.o(i.RCC_Configuration) refers to stm32f10x_flash.o(i.FLASH_SetLatency) for FLASH_SetLatency
    clock.o(i.RCC_Configuration) refers to stm32f10x_flash.o(i.FLASH_PrefetchBufferCmd) for FLASH_PrefetchBufferCmd
    clock.o(i.RCC_Configuration) refers to stm32f10x_rcc.o(i.RCC_PLLConfig) for RCC_PLLConfig
    clock.o(i.RCC_Configuration) refers to stm32f10x_rcc.o(i.RCC_PLLCmd) for RCC_PLLCmd
    clock.o(i.RCC_Configuration) refers to stm32f10x_rcc.o(i.RCC_GetFlagStatus) for RCC_GetFlagStatus
    clock.o(i.RCC_Configuration) refers to stm32f10x_rcc.o(i.RCC_SYSCLKConfig) for RCC_SYSCLKConfig
    clock.o(i.RCC_Configuration) refers to stm32f10x_rcc.o(i.RCC_GetSYSCLKSource) for RCC_GetSYSCLKSource
    clock.o(i.RCC_Configuration) refers to clock.o(.data) for .data
    dac.o(i.AD5541_GPIOCoing) refers to stm32f10x_gpio.o(i.GPIO_Init) for GPIO_Init
    dac.o(i.AD5541_Send) refers to stm32f10x_gpio.o(i.GPIO_ResetBits) for GPIO_ResetBits
    dac.o(i.AD5541_Send) refers to stm32f10x_gpio.o(i.GPIO_SetBits) for GPIO_SetBits
    flash.o(i.EEPROM_READ_Coeff) refers to at24c01.o(i.EEPROM_READ_Byte) for EEPROM_READ_Byte
    flash.o(i.EEPROM_READ_Coeff) refers to modbus.o(.bss) for Correct_Strong
    flash.o(i.Flash_Write_all) refers to at24c01.o(i.EEPROM_WriteByte) for EEPROM_WriteByte
    flash.o(i.Flash_Write_all) refers to stm32f10x_iwdg.o(i.IWDG_ReloadCounter) for IWDG_ReloadCounter
    flash.o(i.Flash_Write_all) refers to modbus.o(.bss) for Correct_Strong
    flash.o(i.READ_TSET) refers to at24c01.o(i.EEPROM_READ_Byte) for EEPROM_READ_Byte
    flash.o(i.READ_TSET) refers to flash.o(.data) for .data
    flash.o(i.Read_Runcont) refers to at24c01.o(i.EEPROM_READ_Byte) for EEPROM_READ_Byte
    flash.o(i.Read_Runcont) refers to modbus.o(.bss) for Run_Control
    flash.o(i.Wite_Runcont) refers to at24c01.o(i.EEPROM_WriteByte) for EEPROM_WriteByte
    flash.o(i.Wite_Runcont) refers to main.o(.data) for flagC
    flash.o(i.Wite_Runcont) refers to usart.o(.bss) for UART_Buffer_Rece
    flash.o(i.Wite_Runcont) refers to modbus.o(.bss) for Run_Control
    flash.o(i.Write_ADDR) refers to at24c01.o(i.EEPROM_WriteByte) for EEPROM_WriteByte
    flash.o(i.Write_ADDR) refers to modbus.o(.bss) for Run_Control
    flash.o(i.Write_bootflag) refers to at24c01.o(i.EEPROM_WriteByte) for EEPROM_WriteByte
    flash.o(i.Write_bootflag) refers to main.o(.data) for bootflag
    flash.o(i.Write_bootmode) refers to at24c01.o(i.EEPROM_WriteByte) for EEPROM_WriteByte
    flash.o(i.Write_bootmode) refers to modbus.o(.bss) for Run_Control
    gpio.o(i.GPIO_Conf) refers to stm32f10x_gpio.o(i.GPIO_DeInit) for GPIO_DeInit
    gpio.o(i.GPIO_Conf) refers to stm32f10x_gpio.o(i.GPIO_AFIODeInit) for GPIO_AFIODeInit
    gpio.o(i.GPIO_Conf) refers to stm32f10x_rcc.o(i.RCC_APB2PeriphClockCmd) for RCC_APB2PeriphClockCmd
    gpio.o(i.GPIO_Conf) refers to stm32f10x_gpio.o(i.GPIO_PinRemapConfig) for GPIO_PinRemapConfig
    gpio.o(i.GPIO_Conf) refers to stm32f10x_gpio.o(i.GPIO_Init) for GPIO_Init
    iic_24c01.o(i.i2c_Ack) refers to stm32f10x_gpio.o(i.GPIO_ResetBits) for GPIO_ResetBits
    iic_24c01.o(i.i2c_Ack) refers to iic_24c01.o(i.i2c_Delay) for i2c_Delay
    iic_24c01.o(i.i2c_Ack) refers to stm32f10x_gpio.o(i.GPIO_SetBits) for GPIO_SetBits
    iic_24c01.o(i.i2c_CfgGpio) refers to stm32f10x_rcc.o(i.RCC_AHBPeriphClockCmd) for RCC_AHBPeriphClockCmd
    iic_24c01.o(i.i2c_CfgGpio) refers to stm32f10x_gpio.o(i.GPIO_Init) for GPIO_Init
    iic_24c01.o(i.i2c_CfgGpio) refers to iic_24c01.o(i.i2c_Stop) for i2c_Stop
    iic_24c01.o(i.i2c_CheckDevice) refers to iic_24c01.o(i.i2c_CfgGpio) for i2c_CfgGpio
    iic_24c01.o(i.i2c_CheckDevice) refers to iic_24c01.o(i.i2c_Start) for i2c_Start
    iic_24c01.o(i.i2c_CheckDevice) refers to iic_24c01.o(i.i2c_SendByte) for i2c_SendByte
    iic_24c01.o(i.i2c_CheckDevice) refers to iic_24c01.o(i.i2c_WaitAck) for i2c_WaitAck
    iic_24c01.o(i.i2c_CheckDevice) refers to iic_24c01.o(i.i2c_Stop) for i2c_Stop
    iic_24c01.o(i.i2c_NAck) refers to stm32f10x_gpio.o(i.GPIO_SetBits) for GPIO_SetBits
    iic_24c01.o(i.i2c_NAck) refers to iic_24c01.o(i.i2c_Delay) for i2c_Delay
    iic_24c01.o(i.i2c_NAck) refers to stm32f10x_gpio.o(i.GPIO_ResetBits) for GPIO_ResetBits
    iic_24c01.o(i.i2c_ReadByte) refers to stm32f10x_gpio.o(i.GPIO_SetBits) for GPIO_SetBits
    iic_24c01.o(i.i2c_ReadByte) refers to iic_24c01.o(i.i2c_Delay) for i2c_Delay
    iic_24c01.o(i.i2c_ReadByte) refers to stm32f10x_gpio.o(i.GPIO_ReadInputDataBit) for GPIO_ReadInputDataBit
    iic_24c01.o(i.i2c_ReadByte) refers to stm32f10x_gpio.o(i.GPIO_ResetBits) for GPIO_ResetBits
    iic_24c01.o(i.i2c_SendByte) refers to stm32f10x_gpio.o(i.GPIO_SetBits) for GPIO_SetBits
    iic_24c01.o(i.i2c_SendByte) refers to stm32f10x_gpio.o(i.GPIO_ResetBits) for GPIO_ResetBits
    iic_24c01.o(i.i2c_SendByte) refers to iic_24c01.o(i.i2c_Delay) for i2c_Delay
    iic_24c01.o(i.i2c_Start) refers to stm32f10x_gpio.o(i.GPIO_SetBits) for GPIO_SetBits
    iic_24c01.o(i.i2c_Start) refers to iic_24c01.o(i.i2c_Delay) for i2c_Delay
    iic_24c01.o(i.i2c_Start) refers to stm32f10x_gpio.o(i.GPIO_ResetBits) for GPIO_ResetBits
    iic_24c01.o(i.i2c_Stop) refers to stm32f10x_gpio.o(i.GPIO_ResetBits) for GPIO_ResetBits
    iic_24c01.o(i.i2c_Stop) refers to stm32f10x_gpio.o(i.GPIO_SetBits) for GPIO_SetBits
    iic_24c01.o(i.i2c_Stop) refers to iic_24c01.o(i.i2c_Delay) for i2c_Delay
    iic_24c01.o(i.i2c_WaitAck) refers to stm32f10x_gpio.o(i.GPIO_SetBits) for GPIO_SetBits
    iic_24c01.o(i.i2c_WaitAck) refers to iic_24c01.o(i.i2c_Delay) for i2c_Delay
    iic_24c01.o(i.i2c_WaitAck) refers to stm32f10x_gpio.o(i.GPIO_ReadInputDataBit) for GPIO_ReadInputDataBit
    iic_24c01.o(i.i2c_WaitAck) refers to stm32f10x_gpio.o(i.GPIO_ResetBits) for GPIO_ResetBits
    iwdg.o(i.IWDG_Inte) refers to stm32f10x_iwdg.o(i.IWDG_WriteAccessCmd) for IWDG_WriteAccessCmd
    iwdg.o(i.IWDG_Inte) refers to stm32f10x_iwdg.o(i.IWDG_SetPrescaler) for IWDG_SetPrescaler
    iwdg.o(i.IWDG_Inte) refers to stm32f10x_iwdg.o(i.IWDG_SetReload) for IWDG_SetReload
    iwdg.o(i.IWDG_Inte) refers to stm32f10x_iwdg.o(i.IWDG_ReloadCounter) for IWDG_ReloadCounter
    iwdg.o(i.IWDG_Inte) refers to stm32f10x_iwdg.o(i.IWDG_Enable) for IWDG_Enable
    modbus.o(i.Bias_Correction) refers to modbus.o(i.Bias_Para) for Bias_Para
    modbus.o(i.Bias_Correction) refers to ffltui.o(.text) for __aeabi_ui2f
    modbus.o(i.Bias_Correction) refers to cfrcmple.o(.text) for __aeabi_cfrcmple
    modbus.o(i.Bias_Correction) refers to fadd.o(.text) for __aeabi_fsub
    modbus.o(i.Bias_Correction) refers to fdiv.o(.text) for __aeabi_fdiv
    modbus.o(i.Bias_Correction) refers to ffixui.o(.text) for __aeabi_f2uiz
    modbus.o(i.Bias_Correction) refers to modbus.o(.bss) for .bss
    modbus.o(i.Bias_Para) refers to ffltui.o(.text) for __aeabi_ui2f
    modbus.o(i.Bias_Para) refers to fdiv.o(.text) for __aeabi_fdiv
    modbus.o(i.Bias_Para) refers to modbus.o(.bss) for .bss
    modbus.o(i.Transformation_ADC) refers to modbus.o(i.Bias_Correction) for Bias_Correction
    modbus.o(i.Transformation_ADC) refers to modbus.o(.bss) for .bss
    modbus.o(i.Transformation_ADC) refers to adc.o(.data) for Vmon_value
    modbus.o(i.Transformation_ADC) refers to adc.o(.data) for Imon_value
    modbus.o(i.Transformation_ADC) refers to main.o(.data) for flagB
    modbus.o(i.Transformation_ADC) refers to modbus.o(.data) for .data
    modbus.o(i.Transformation_ADC) refers to stm32f10x_it.o(.data) for dynaflagA
    modbus.o(i.Transformation_ADC) refers to ffltui.o(.text) for __aeabi_ui2f
    modbus.o(i.Transformation_ADC) refers to fdiv.o(.text) for __aeabi_fdiv
    modbus.o(i.Transformation_ADC) refers to fmul.o(.text) for __aeabi_fmul
    modbus.o(i.Transformation_ADC) refers to ffixui.o(.text) for __aeabi_f2uiz
    modbus.o(i.UART1_Action) refers to memseta.o(.text) for __aeabi_memclr
    modbus.o(i.UART1_Action) refers to modbus.o(i.Hardware_CRC) for Hardware_CRC
    modbus.o(i.UART1_Action) refers to usart.o(i.UART1_Send) for UART1_Send
    modbus.o(i.UART1_Action) refers to usart.o(.bss) for UART_Buffer_Rece1
    modbus.o(i.UART1_Action) refers to modbus.o(.bss) for .bss
    modbus.o(i.UART1_Action) refers to usart.o(.bss) for UART_Buffer_Send1
    modbus.o(i.UART1_Action) refers to usart.o(.data) for Transmit_BUFFERsize
    modbus.o(i.UART1_Action) refers to main.o(.data) for flagA
    modbus.o(i.UART1_Action) refers to main.o(.data) for flagC
    modbus.o(i.UART1_Action) refers to stm32f10x_it.o(.data) for dynaflagB
    modbus.o(i.UART1_Action) refers to modbus.o(.data) for .data
    modbus.o(i.UART3_Action) refers to memseta.o(.text) for __aeabi_memclr
    modbus.o(i.UART3_Action) refers to modbus.o(i.Hardware_CRC) for Hardware_CRC
    modbus.o(i.UART3_Action) refers to usart.o(i.UART3_Send) for UART3_Send
    modbus.o(i.UART3_Action) refers to usart.o(.bss) for UART_Buffer_Rece1
    modbus.o(i.UART3_Action) refers to modbus.o(.bss) for .bss
    modbus.o(i.UART3_Action) refers to usart.o(.bss) for UART_Buffer_Send1
    modbus.o(i.UART3_Action) refers to usart.o(.data) for Transmit_BUFFERsize
    modbus.o(i.UART3_Action) refers to main.o(.data) for flagA
    modbus.o(i.UART3_Action) refers to main.o(.data) for flagC
    modbus.o(i.UART3_Action) refers to stm32f10x_it.o(.data) for dynaflagB
    modbus.o(i.UART3_Action) refers to modbus.o(.data) for .data
    modbus.o(i.UART_Action) refers to modbus.o(i.Hardware_CRC) for Hardware_CRC
    modbus.o(i.UART_Action) refers to usart.o(i.UART2_Send) for UART2_Send
    modbus.o(i.UART_Action) refers to memseta.o(.text) for __aeabi_memclr
    modbus.o(i.UART_Action) refers to usart.o(.bss) for UART_Buffer_Rece
    modbus.o(i.UART_Action) refers to main.o(.data) for flagA
    modbus.o(i.UART_Action) refers to modbus.o(.bss) for .bss
    modbus.o(i.UART_Action) refers to usart.o(.bss) for UART_Buffer_Send
    modbus.o(i.UART_Action) refers to usart.o(.data) for Transmit_BUFFERsize
    modbus.o(i.UART_Action) refers to modbus.o(.data) for .data
    modbus.o(i.UART_Action) refers to main.o(.data) for flagC
    modbus.o(i.UART_Action) refers to stm32f10x_it.o(.data) for dynaflagB
    modbus.o(i.UART_Action) refers to adc.o(.data) for Vmon_value
    modbus.o(i.UART_Action) refers to flash.o(i.Flash_Write_all) for Flash_Write_all
    modbus.o(i.UART_Action) refers to adc.o(.data) for Imon_value
    tim6.o(i.TIM6_Config) refers to stm32f10x_rcc.o(i.RCC_APB1PeriphClockCmd) for RCC_APB1PeriphClockCmd
    tim6.o(i.TIM6_Config) refers to stm32f10x_tim.o(i.TIM_TimeBaseInit) for TIM_TimeBaseInit
    tim6.o(i.TIM6_Config) refers to stm32f10x_tim.o(i.TIM_ITConfig) for TIM_ITConfig
    tim6.o(i.TIM6_Config) refers to misc.o(i.NVIC_Init) for NVIC_Init
    tim6.o(i.TIM6_Config) refers to stm32f10x_tim.o(i.TIM_Cmd) for TIM_Cmd
    usart.o(i.Baud_SET) refers to usart.o(i.USART_Configuration) for USART_Configuration
    usart.o(i.Baud_SET) refers to modbus.o(.bss) for Run_Control
    usart.o(i.Baud_SET) refers to usart.o(.data) for .data
    usart.o(i.UART1_Send) refers to stm32f10x_usart.o(i.USART_SendData) for USART_SendData
    usart.o(i.UART1_Send) refers to stm32f10x_usart.o(i.USART_GetFlagStatus) for USART_GetFlagStatus
    usart.o(i.UART1_Send) refers to usart.o(.bss) for .bss
    usart.o(i.UART1_Send) refers to usart.o(.data) for .data
    usart.o(i.UART1_Send) refers to main.o(.data) for flagA
    usart.o(i.UART2_Send) refers to stm32f10x_usart.o(i.USART_SendData) for USART_SendData
    usart.o(i.UART2_Send) refers to stm32f10x_usart.o(i.USART_GetFlagStatus) for USART_GetFlagStatus
    usart.o(i.UART2_Send) refers to usart.o(.bss) for .bss
    usart.o(i.UART2_Send) refers to usart.o(.data) for .data
    usart.o(i.UART2_Send) refers to main.o(.data) for flagA
    usart.o(i.UART3_Send) refers to stm32f10x_usart.o(i.USART_SendData) for USART_SendData
    usart.o(i.UART3_Send) refers to stm32f10x_usart.o(i.USART_GetFlagStatus) for USART_GetFlagStatus
    usart.o(i.UART3_Send) refers to usart.o(.bss) for .bss
    usart.o(i.UART3_Send) refers to usart.o(.data) for .data
    usart.o(i.UART3_Send) refers to main.o(.data) for flagA
    usart.o(i.USART1_NVIC_Config) refers to misc.o(i.NVIC_PriorityGroupConfig) for NVIC_PriorityGroupConfig
    usart.o(i.USART1_NVIC_Config) refers to misc.o(i.NVIC_Init) for NVIC_Init
    usart.o(i.USART2_Configuration) refers to stm32f10x_rcc.o(i.RCC_APB1PeriphClockCmd) for RCC_APB1PeriphClockCmd
    usart.o(i.USART2_Configuration) refers to stm32f10x_gpio.o(i.GPIO_Init) for GPIO_Init
    usart.o(i.USART2_Configuration) refers to stm32f10x_usart.o(i.USART_Init) for USART_Init
    usart.o(i.USART2_Configuration) refers to usart.o(i.USART1_NVIC_Config) for USART1_NVIC_Config
    usart.o(i.USART2_Configuration) refers to stm32f10x_usart.o(i.USART_ITConfig) for USART_ITConfig
    usart.o(i.USART2_Configuration) refers to stm32f10x_usart.o(i.USART_Cmd) for USART_Cmd
    usart.o(i.USART2_Configuration) refers to stm32f10x_usart.o(i.USART_ClearFlag) for USART_ClearFlag
    usart.o(i.USART3_Configuration) refers to stm32f10x_rcc.o(i.RCC_APB1PeriphClockCmd) for RCC_APB1PeriphClockCmd
    usart.o(i.USART3_Configuration) refers to stm32f10x_gpio.o(i.GPIO_Init) for GPIO_Init
    usart.o(i.USART3_Configuration) refers to stm32f10x_usart.o(i.USART_Init) for USART_Init
    usart.o(i.USART3_Configuration) refers to usart.o(i.USART1_NVIC_Config) for USART1_NVIC_Config
    usart.o(i.USART3_Configuration) refers to stm32f10x_usart.o(i.USART_ITConfig) for USART_ITConfig
    usart.o(i.USART3_Configuration) refers to stm32f10x_usart.o(i.USART_Cmd) for USART_Cmd
    usart.o(i.USART3_Configuration) refers to stm32f10x_usart.o(i.USART_ClearFlag) for USART_ClearFlag
    usart.o(i.USART_Configuration) refers to stm32f10x_rcc.o(i.RCC_APB2PeriphClockCmd) for RCC_APB2PeriphClockCmd
    usart.o(i.USART_Configuration) refers to stm32f10x_gpio.o(i.GPIO_PinRemapConfig) for GPIO_PinRemapConfig
    usart.o(i.USART_Configuration) refers to stm32f10x_gpio.o(i.GPIO_Init) for GPIO_Init
    usart.o(i.USART_Configuration) refers to stm32f10x_usart.o(i.USART_Init) for USART_Init
    usart.o(i.USART_Configuration) refers to usart.o(i.USART1_NVIC_Config) for USART1_NVIC_Config
    usart.o(i.USART_Configuration) refers to stm32f10x_usart.o(i.USART_ITConfig) for USART_ITConfig
    usart.o(i.USART_Configuration) refers to stm32f10x_usart.o(i.USART_Cmd) for USART_Cmd
    usart.o(i.USART_Configuration) refers to stm32f10x_usart.o(i.USART_ClearFlag) for USART_ClearFlag
    usart.o(i.USART_Configuration) refers to usart.o(.data) for .data
    usart.o(i.Usart1_Sendstring) refers to strlen.o(.text) for strlen
    usart.o(i.Usart1_Sendstring) refers to stm32f10x_usart.o(i.USART_GetFlagStatus) for USART_GetFlagStatus
    usart.o(i.Usart1_Sendstring) refers to stm32f10x_usart.o(i.USART_SendData) for USART_SendData
    fan_pro.o(i.All_protect) refers to stm32f10x_gpio.o(i.GPIO_SetBits) for GPIO_SetBits
    fan_pro.o(i.All_protect) refers to stm32f10x_gpio.o(i.GPIO_ReadInputDataBit) for GPIO_ReadInputDataBit
    fan_pro.o(i.All_protect) refers to stm32f10x_gpio.o(i.GPIO_ResetBits) for GPIO_ResetBits
    fan_pro.o(i.All_protect) refers to modbus.o(.bss) for Run_Control
    fan_pro.o(i.All_protect) refers to fan_pro.o(.data) for .data
    fan_pro.o(i.Temp_Comapre) refers to stm32f10x_gpio.o(i.GPIO_SetBits) for GPIO_SetBits
    fan_pro.o(i.Temp_Comapre) refers to adc.o(.data) for NTC_value
    fan_pro.o(i.Temp_Comapre) refers to modbus.o(.bss) for Run_Control
    menu.o(i.Cont_coeff_LEDMODE) refers to modbus.o(.bss) for Run_Control
    menu.o(i.I_SW_COTNR) refers to stm32f10x_gpio.o(i.GPIO_SetBits) for GPIO_SetBits
    menu.o(i.I_SW_COTNR) refers to stm32f10x_gpio.o(i.GPIO_ResetBits) for GPIO_ResetBits
    menu.o(i.I_SW_COTNR) refers to modbus.o(.bss) for Run_Control
    menu.o(i.I_SW_COTNR) refers to modbus.o(.data) for DAC_Flag
    menu.o(i.I_SW_COTNR) refers to menu.o(.data) for .data
    menu.o(i.MAXPAR_limit) refers to modbus.o(.bss) for Run_Control
    menu.o(i.Sence_SW_CONT) refers to stm32f10x_gpio.o(i.GPIO_SetBits) for GPIO_SetBits
    menu.o(i.Sence_SW_CONT) refers to stm32f10x_gpio.o(i.GPIO_ResetBits) for GPIO_ResetBits
    menu.o(i.Sence_SW_CONT) refers to modbus.o(.bss) for Run_Control
    menu.o(i.V_SW_COTNR) refers to stm32f10x_gpio.o(i.GPIO_ResetBits) for GPIO_ResetBits
    menu.o(i.V_SW_COTNR) refers to stm32f10x_gpio.o(i.GPIO_SetBits) for GPIO_SetBits
    menu.o(i.V_SW_COTNR) refers to modbus.o(.bss) for Run_Control
    menu.o(i.V_SW_COTNR) refers to modbus.o(.data) for DAC_Flag
    menu.o(i.worke_mode) refers to stm32f10x_gpio.o(i.GPIO_ResetBits) for GPIO_ResetBits
    menu.o(i.worke_mode) refers to stm32f10x_gpio.o(i.GPIO_SetBits) for GPIO_SetBits
    menu.o(i.worke_mode) refers to menu.o(i.Cont_coeff_LEDMODE) for Cont_coeff_LEDMODE
    menu.o(i.worke_mode) refers to menu.o(i.I_SW_COTNR) for I_SW_COTNR
    menu.o(i.worke_mode) refers to menu.o(i.V_SW_COTNR) for V_SW_COTNR
    menu.o(i.worke_mode) refers to menu.o(i.Sence_SW_CONT) for Sence_SW_CONT
    menu.o(i.worke_mode) refers to modbus.o(.bss) for Run_Control
    menu.o(i.worke_mode) refers to main.o(.data) for flagB
    menu.o(i.worke_mode) refers to menu.o(.data) for .data
    menu.o(i.worke_mode) refers to stm32f10x_it.o(.data) for dynaflagA
    menu.o(i.worke_mode) refers to modbus.o(.data) for dynaonflag
    ad7689.o(i.AD7689_InitializeSPI2) refers to stm32f10x_rcc.o(i.RCC_APB2PeriphClockCmd) for RCC_APB2PeriphClockCmd
    ad7689.o(i.AD7689_InitializeSPI2) refers to stm32f10x_rcc.o(i.RCC_APB1PeriphClockCmd) for RCC_APB1PeriphClockCmd
    ad7689.o(i.AD7689_InitializeSPI2) refers to stm32f10x_gpio.o(i.GPIO_Init) for GPIO_Init
    ad7689.o(i.AD7689_InitializeSPI2) refers to stm32f10x_gpio.o(i.GPIO_SetBits) for GPIO_SetBits
    ad7689.o(i.AD7689_InitializeSPI2) refers to ad7689.o(i.AD7689_Delay) for AD7689_Delay
    ad7689.o(i.AD7689_InitializeSPI2) refers to stm32f10x_gpio.o(i.GPIO_ResetBits) for GPIO_ResetBits
    ad7689.o(i.AD7689_InitializeSPI2) refers to stm32f10x_spi.o(i.SPI_Init) for SPI_Init
    ad7689.o(i.AD7689_InitializeSPI2) refers to stm32f10x_spi.o(i.SPI_Cmd) for SPI_Cmd
    ad7689.o(i.AD7689_Scan_CH) refers to ad7689.o(i.SPI_AD7689_Read) for SPI_AD7689_Read
    ad7689.o(i.AD7689_Scan_CH) refers to ad7689.o(.bss) for .bss
    ad7689.o(i.AD7689_Scan_CH) refers to ad7689.o(.data) for .data
    ad7689.o(i.AD7689_Scan_CH) refers to adc.o(.data) for Imon_value
    ad7689.o(i.AD7689_Scan_CH) refers to adc.o(.data) for Vmon_value
    ad7689.o(i.AD7689_TransferByte) refers to stm32f10x_spi.o(i.SPI_I2S_GetFlagStatus) for SPI_I2S_GetFlagStatus
    ad7689.o(i.AD7689_TransferByte) refers to stm32f10x_spi.o(i.SPI_I2S_SendData) for SPI_I2S_SendData
    ad7689.o(i.AD7689_TransferByte) refers to stm32f10x_spi.o(i.SPI_I2S_ReceiveData) for SPI_I2S_ReceiveData
    ad7689.o(i.SPI_AD7689_Read) refers to stm32f10x_gpio.o(i.GPIO_ResetBits) for GPIO_ResetBits
    ad7689.o(i.SPI_AD7689_Read) refers to ad7689.o(i.AD7689_TransferByte) for AD7689_TransferByte
    ad7689.o(i.SPI_AD7689_Read) refers to ad7689.o(i.AD7689_Delay) for AD7689_Delay
    ad7689.o(i.SPI_AD7689_Read) refers to stm32f10x_gpio.o(i.GPIO_SetBits) for GPIO_SetBits
    scpi-def.o(i.CCQ) refers to ffltui.o(.text) for __aeabi_ui2f
    scpi-def.o(i.CCQ) refers to fdiv.o(.text) for __aeabi_fdiv
    scpi-def.o(i.CCQ) refers to parser.o(i.SCPI_ResultFloat) for SCPI_ResultFloat
    scpi-def.o(i.CCQ) refers to modbus.o(.bss) for Run_Control
    scpi-def.o(i.CCSET) refers to parser.o(i.SCPI_ParamFloat) for SCPI_ParamFloat
    scpi-def.o(i.CCSET) refers to fmul.o(.text) for __aeabi_fmul
    scpi-def.o(i.CCSET) refers to ffixui.o(.text) for __aeabi_f2uiz
    scpi-def.o(i.CCSET) refers to parser.o(i.SCPI_ResultCharacters) for SCPI_ResultCharacters
    scpi-def.o(i.CCSET) refers to modbus.o(.bss) for Run_Control
    scpi-def.o(i.CCSET) refers to scpi-def.o(.constdata) for .constdata
    scpi-def.o(i.CPQ) refers to ffltui.o(.text) for __aeabi_ui2f
    scpi-def.o(i.CPQ) refers to fdiv.o(.text) for __aeabi_fdiv
    scpi-def.o(i.CPQ) refers to parser.o(i.SCPI_ResultFloat) for SCPI_ResultFloat
    scpi-def.o(i.CPQ) refers to modbus.o(.bss) for Run_Control
    scpi-def.o(i.CPROTECTQ) refers to ffltui.o(.text) for __aeabi_ui2f
    scpi-def.o(i.CPROTECTQ) refers to fdiv.o(.text) for __aeabi_fdiv
    scpi-def.o(i.CPROTECTQ) refers to parser.o(i.SCPI_ResultFloat) for SCPI_ResultFloat
    scpi-def.o(i.CPROTECTQ) refers to modbus.o(.bss) for Run_Control
    scpi-def.o(i.CPROTECTSET) refers to parser.o(i.SCPI_ParamFloat) for SCPI_ParamFloat
    scpi-def.o(i.CPROTECTSET) refers to fmul.o(.text) for __aeabi_fmul
    scpi-def.o(i.CPROTECTSET) refers to ffixui.o(.text) for __aeabi_f2uiz
    scpi-def.o(i.CPROTECTSET) refers to parser.o(i.SCPI_ResultCharacters) for SCPI_ResultCharacters
    scpi-def.o(i.CPROTECTSET) refers to modbus.o(.bss) for Run_Control
    scpi-def.o(i.CPROTECTSET) refers to scpi-def.o(.constdata) for .constdata
    scpi-def.o(i.CPSET) refers to parser.o(i.SCPI_ParamFloat) for SCPI_ParamFloat
    scpi-def.o(i.CPSET) refers to fmul.o(.text) for __aeabi_fmul
    scpi-def.o(i.CPSET) refers to ffixui.o(.text) for __aeabi_f2uiz
    scpi-def.o(i.CPSET) refers to parser.o(i.SCPI_ResultCharacters) for SCPI_ResultCharacters
    scpi-def.o(i.CPSET) refers to modbus.o(.bss) for Run_Control
    scpi-def.o(i.CPSET) refers to scpi-def.o(.constdata) for .constdata
    scpi-def.o(i.CRQ) refers to ffltui.o(.text) for __aeabi_ui2f
    scpi-def.o(i.CRQ) refers to fdiv.o(.text) for __aeabi_fdiv
    scpi-def.o(i.CRQ) refers to parser.o(i.SCPI_ResultFloat) for SCPI_ResultFloat
    scpi-def.o(i.CRQ) refers to modbus.o(.bss) for Run_Control
    scpi-def.o(i.CRSET) refers to parser.o(i.SCPI_ParamFloat) for SCPI_ParamFloat
    scpi-def.o(i.CRSET) refers to fmul.o(.text) for __aeabi_fmul
    scpi-def.o(i.CRSET) refers to ffixui.o(.text) for __aeabi_f2uiz
    scpi-def.o(i.CRSET) refers to parser.o(i.SCPI_ResultCharacters) for SCPI_ResultCharacters
    scpi-def.o(i.CRSET) refers to modbus.o(.bss) for Run_Control
    scpi-def.o(i.CRSET) refers to scpi-def.o(.constdata) for .constdata
    scpi-def.o(i.CURRENTQ) refers to ffltui.o(.text) for __aeabi_ui2f
    scpi-def.o(i.CURRENTQ) refers to fdiv.o(.text) for __aeabi_fdiv
    scpi-def.o(i.CURRENTQ) refers to parser.o(i.SCPI_ResultFloat) for SCPI_ResultFloat
    scpi-def.o(i.CURRENTQ) refers to modbus.o(.bss) for Run_Control
    scpi-def.o(i.CVQ) refers to ffltui.o(.text) for __aeabi_ui2f
    scpi-def.o(i.CVQ) refers to fdiv.o(.text) for __aeabi_fdiv
    scpi-def.o(i.CVQ) refers to parser.o(i.SCPI_ResultFloat) for SCPI_ResultFloat
    scpi-def.o(i.CVQ) refers to modbus.o(.bss) for Run_Control
    scpi-def.o(i.CVSET) refers to parser.o(i.SCPI_ParamFloat) for SCPI_ParamFloat
    scpi-def.o(i.CVSET) refers to fmul.o(.text) for __aeabi_fmul
    scpi-def.o(i.CVSET) refers to ffixui.o(.text) for __aeabi_f2uiz
    scpi-def.o(i.CVSET) refers to parser.o(i.SCPI_ResultCharacters) for SCPI_ResultCharacters
    scpi-def.o(i.CVSET) refers to modbus.o(.bss) for Run_Control
    scpi-def.o(i.CVSET) refers to scpi-def.o(.constdata) for .constdata
    scpi-def.o(i.DMM_ConfigureVoltageDc) refers to parser.o(i.SCPI_ParamDouble) for SCPI_ParamDouble
    scpi-def.o(i.DMM_MeasureVoltageAcQ) refers to units.o(i.SCPI_ParamNumber) for SCPI_ParamNumber
    scpi-def.o(i.DMM_MeasureVoltageAcQ) refers to units.o(i.SCPI_NumberToStr) for SCPI_NumberToStr
    scpi-def.o(i.DMM_MeasureVoltageAcQ) refers to parser.o(i.SCPI_ResultDouble) for SCPI_ResultDouble
    scpi-def.o(i.DMM_MeasureVoltageAcQ) refers to units.o(.constdata) for scpi_special_numbers_def
    scpi-def.o(i.DYNHDQ) refers to ffltui.o(.text) for __aeabi_ui2f
    scpi-def.o(i.DYNHDQ) refers to fdiv.o(.text) for __aeabi_fdiv
    scpi-def.o(i.DYNHDQ) refers to parser.o(i.SCPI_ResultFloat) for SCPI_ResultFloat
    scpi-def.o(i.DYNHDQ) refers to modbus.o(.bss) for Run_Control
    scpi-def.o(i.DYNHDSET) refers to parser.o(i.SCPI_ParamFloat) for SCPI_ParamFloat
    scpi-def.o(i.DYNHDSET) refers to fmul.o(.text) for __aeabi_fmul
    scpi-def.o(i.DYNHDSET) refers to ffixui.o(.text) for __aeabi_f2uiz
    scpi-def.o(i.DYNHDSET) refers to parser.o(i.SCPI_ResultCharacters) for SCPI_ResultCharacters
    scpi-def.o(i.DYNHDSET) refers to modbus.o(.bss) for Run_Control
    scpi-def.o(i.DYNHDSET) refers to scpi-def.o(.constdata) for .constdata
    scpi-def.o(i.DYNHQ) refers to ffltui.o(.text) for __aeabi_ui2f
    scpi-def.o(i.DYNHQ) refers to fdiv.o(.text) for __aeabi_fdiv
    scpi-def.o(i.DYNHQ) refers to parser.o(i.SCPI_ResultFloat) for SCPI_ResultFloat
    scpi-def.o(i.DYNHQ) refers to modbus.o(.bss) for Run_Control
    scpi-def.o(i.DYNHSET) refers to parser.o(i.SCPI_ParamFloat) for SCPI_ParamFloat
    scpi-def.o(i.DYNHSET) refers to fmul.o(.text) for __aeabi_fmul
    scpi-def.o(i.DYNHSET) refers to ffixui.o(.text) for __aeabi_f2uiz
    scpi-def.o(i.DYNHSET) refers to parser.o(i.SCPI_ResultCharacters) for SCPI_ResultCharacters
    scpi-def.o(i.DYNHSET) refers to modbus.o(.bss) for Run_Control
    scpi-def.o(i.DYNHSET) refers to scpi-def.o(.constdata) for .constdata
    scpi-def.o(i.DYNLDQ) refers to ffltui.o(.text) for __aeabi_ui2f
    scpi-def.o(i.DYNLDQ) refers to fdiv.o(.text) for __aeabi_fdiv
    scpi-def.o(i.DYNLDQ) refers to parser.o(i.SCPI_ResultFloat) for SCPI_ResultFloat
    scpi-def.o(i.DYNLDQ) refers to modbus.o(.bss) for Run_Control
    scpi-def.o(i.DYNLDSET) refers to parser.o(i.SCPI_ParamFloat) for SCPI_ParamFloat
    scpi-def.o(i.DYNLDSET) refers to fmul.o(.text) for __aeabi_fmul
    scpi-def.o(i.DYNLDSET) refers to ffixui.o(.text) for __aeabi_f2uiz
    scpi-def.o(i.DYNLDSET) refers to parser.o(i.SCPI_ResultCharacters) for SCPI_ResultCharacters
    scpi-def.o(i.DYNLDSET) refers to modbus.o(.bss) for Run_Control
    scpi-def.o(i.DYNLDSET) refers to scpi-def.o(.constdata) for .constdata
    scpi-def.o(i.DYNLQ) refers to ffltui.o(.text) for __aeabi_ui2f
    scpi-def.o(i.DYNLQ) refers to fdiv.o(.text) for __aeabi_fdiv
    scpi-def.o(i.DYNLQ) refers to parser.o(i.SCPI_ResultFloat) for SCPI_ResultFloat
    scpi-def.o(i.DYNLQ) refers to modbus.o(.bss) for Run_Control
    scpi-def.o(i.DYNLSET) refers to parser.o(i.SCPI_ParamFloat) for SCPI_ParamFloat
    scpi-def.o(i.DYNLSET) refers to fmul.o(.text) for __aeabi_fmul
    scpi-def.o(i.DYNLSET) refers to ffixui.o(.text) for __aeabi_f2uiz
    scpi-def.o(i.DYNLSET) refers to parser.o(i.SCPI_ResultCharacters) for SCPI_ResultCharacters
    scpi-def.o(i.DYNLSET) refers to modbus.o(.bss) for Run_Control
    scpi-def.o(i.DYNLSET) refers to scpi-def.o(.constdata) for .constdata
    scpi-def.o(i.DYNMODEQ) refers to parser.o(i.SCPI_ChoiceToName) for SCPI_ChoiceToName
    scpi-def.o(i.DYNMODEQ) refers to parser.o(i.SCPI_ResultCharacters) for SCPI_ResultCharacters
    scpi-def.o(i.DYNMODEQ) refers to modbus.o(.bss) for Run_Control
    scpi-def.o(i.DYNMODEQ) refers to scpi-def.o(.data) for .data
    scpi-def.o(i.DYNMODESET) refers to parser.o(i.SCPI_ParamChoice) for SCPI_ParamChoice
    scpi-def.o(i.DYNMODESET) refers to parser.o(i.SCPI_ResultCharacters) for SCPI_ResultCharacters
    scpi-def.o(i.DYNMODESET) refers to scpi-def.o(.data) for .data
    scpi-def.o(i.DYNMODESET) refers to modbus.o(.bss) for Run_Control
    scpi-def.o(i.DYNMODESET) refers to scpi-def.o(.constdata) for .constdata
    scpi-def.o(i.DYNSLEWFQ) refers to ffltui.o(.text) for __aeabi_ui2f
    scpi-def.o(i.DYNSLEWFQ) refers to fdiv.o(.text) for __aeabi_fdiv
    scpi-def.o(i.DYNSLEWFQ) refers to parser.o(i.SCPI_ResultFloat) for SCPI_ResultFloat
    scpi-def.o(i.DYNSLEWFQ) refers to modbus.o(.bss) for Run_Control
    scpi-def.o(i.DYNSLEWFSET) refers to parser.o(i.SCPI_ParamFloat) for SCPI_ParamFloat
    scpi-def.o(i.DYNSLEWFSET) refers to fmul.o(.text) for __aeabi_fmul
    scpi-def.o(i.DYNSLEWFSET) refers to ffixui.o(.text) for __aeabi_f2uiz
    scpi-def.o(i.DYNSLEWFSET) refers to parser.o(i.SCPI_ResultCharacters) for SCPI_ResultCharacters
    scpi-def.o(i.DYNSLEWFSET) refers to modbus.o(.bss) for Run_Control
    scpi-def.o(i.DYNSLEWFSET) refers to scpi-def.o(.constdata) for .constdata
    scpi-def.o(i.DYNSLEWQ) refers to ffltui.o(.text) for __aeabi_ui2f
    scpi-def.o(i.DYNSLEWQ) refers to fdiv.o(.text) for __aeabi_fdiv
    scpi-def.o(i.DYNSLEWQ) refers to parser.o(i.SCPI_ResultFloat) for SCPI_ResultFloat
    scpi-def.o(i.DYNSLEWQ) refers to modbus.o(.bss) for Run_Control
    scpi-def.o(i.DYNSLEWRQ) refers to ffltui.o(.text) for __aeabi_ui2f
    scpi-def.o(i.DYNSLEWRQ) refers to fdiv.o(.text) for __aeabi_fdiv
    scpi-def.o(i.DYNSLEWRQ) refers to parser.o(i.SCPI_ResultFloat) for SCPI_ResultFloat
    scpi-def.o(i.DYNSLEWRQ) refers to modbus.o(.bss) for Run_Control
    scpi-def.o(i.DYNSLEWRSET) refers to parser.o(i.SCPI_ParamFloat) for SCPI_ParamFloat
    scpi-def.o(i.DYNSLEWRSET) refers to fmul.o(.text) for __aeabi_fmul
    scpi-def.o(i.DYNSLEWRSET) refers to ffixui.o(.text) for __aeabi_f2uiz
    scpi-def.o(i.DYNSLEWRSET) refers to parser.o(i.SCPI_ResultCharacters) for SCPI_ResultCharacters
    scpi-def.o(i.DYNSLEWRSET) refers to modbus.o(.bss) for Run_Control
    scpi-def.o(i.DYNSLEWRSET) refers to scpi-def.o(.constdata) for .constdata
    scpi-def.o(i.DYNSLEWSET) refers to parser.o(i.SCPI_ParamFloat) for SCPI_ParamFloat
    scpi-def.o(i.DYNSLEWSET) refers to fmul.o(.text) for __aeabi_fmul
    scpi-def.o(i.DYNSLEWSET) refers to ffixui.o(.text) for __aeabi_f2uiz
    scpi-def.o(i.DYNSLEWSET) refers to parser.o(i.SCPI_ResultCharacters) for SCPI_ResultCharacters
    scpi-def.o(i.DYNSLEWSET) refers to modbus.o(.bss) for Run_Control
    scpi-def.o(i.DYNSLEWSET) refers to scpi-def.o(.constdata) for .constdata
    scpi-def.o(i.INPUTQ) refers to ffltui.o(.text) for __aeabi_ui2f
    scpi-def.o(i.INPUTQ) refers to parser.o(i.SCPI_ResultFloat) for SCPI_ResultFloat
    scpi-def.o(i.INPUTQ) refers to modbus.o(.bss) for Run_Control
    scpi-def.o(i.INPUTSET) refers to parser.o(i.SCPI_ParamUInt32) for SCPI_ParamUInt32
    scpi-def.o(i.INPUTSET) refers to parser.o(i.SCPI_ResultCharacters) for SCPI_ResultCharacters
    scpi-def.o(i.INPUTSET) refers to modbus.o(.bss) for Run_Control
    scpi-def.o(i.INPUTSET) refers to scpi-def.o(.constdata) for .constdata
    scpi-def.o(i.IRANGEQ) refers to ffltui.o(.text) for __aeabi_ui2f
    scpi-def.o(i.IRANGEQ) refers to parser.o(i.SCPI_ResultFloat) for SCPI_ResultFloat
    scpi-def.o(i.IRANGEQ) refers to modbus.o(.bss) for Run_Control
    scpi-def.o(i.IRANGESET) refers to parser.o(i.SCPI_ParamUInt32) for SCPI_ParamUInt32
    scpi-def.o(i.IRANGESET) refers to parser.o(i.SCPI_ResultCharacters) for SCPI_ResultCharacters
    scpi-def.o(i.IRANGESET) refers to modbus.o(.bss) for Run_Control
    scpi-def.o(i.IRANGESET) refers to scpi-def.o(.constdata) for .constdata
    scpi-def.o(i.ISLEWFQ) refers to ffltui.o(.text) for __aeabi_ui2f
    scpi-def.o(i.ISLEWFQ) refers to fdiv.o(.text) for __aeabi_fdiv
    scpi-def.o(i.ISLEWFQ) refers to parser.o(i.SCPI_ResultFloat) for SCPI_ResultFloat
    scpi-def.o(i.ISLEWFQ) refers to modbus.o(.bss) for Run_Control
    scpi-def.o(i.ISLEWFSET) refers to parser.o(i.SCPI_ParamFloat) for SCPI_ParamFloat
    scpi-def.o(i.ISLEWFSET) refers to fmul.o(.text) for __aeabi_fmul
    scpi-def.o(i.ISLEWFSET) refers to ffixui.o(.text) for __aeabi_f2uiz
    scpi-def.o(i.ISLEWFSET) refers to parser.o(i.SCPI_ResultCharacters) for SCPI_ResultCharacters
    scpi-def.o(i.ISLEWFSET) refers to modbus.o(.bss) for Run_Control
    scpi-def.o(i.ISLEWFSET) refers to scpi-def.o(.constdata) for .constdata
    scpi-def.o(i.ISLEWQ) refers to ffltui.o(.text) for __aeabi_ui2f
    scpi-def.o(i.ISLEWQ) refers to fdiv.o(.text) for __aeabi_fdiv
    scpi-def.o(i.ISLEWQ) refers to parser.o(i.SCPI_ResultFloat) for SCPI_ResultFloat
    scpi-def.o(i.ISLEWQ) refers to modbus.o(.bss) for Run_Control
    scpi-def.o(i.ISLEWRQ) refers to ffltui.o(.text) for __aeabi_ui2f
    scpi-def.o(i.ISLEWRQ) refers to fdiv.o(.text) for __aeabi_fdiv
    scpi-def.o(i.ISLEWRQ) refers to parser.o(i.SCPI_ResultFloat) for SCPI_ResultFloat
    scpi-def.o(i.ISLEWRQ) refers to modbus.o(.bss) for Run_Control
    scpi-def.o(i.ISLEWRSET) refers to parser.o(i.SCPI_ParamFloat) for SCPI_ParamFloat
    scpi-def.o(i.ISLEWRSET) refers to fmul.o(.text) for __aeabi_fmul
    scpi-def.o(i.ISLEWRSET) refers to ffixui.o(.text) for __aeabi_f2uiz
    scpi-def.o(i.ISLEWRSET) refers to parser.o(i.SCPI_ResultCharacters) for SCPI_ResultCharacters
    scpi-def.o(i.ISLEWRSET) refers to modbus.o(.bss) for Run_Control
    scpi-def.o(i.ISLEWRSET) refers to scpi-def.o(.constdata) for .constdata
    scpi-def.o(i.ISLEWSET) refers to parser.o(i.SCPI_ParamFloat) for SCPI_ParamFloat
    scpi-def.o(i.ISLEWSET) refers to fmul.o(.text) for __aeabi_fmul
    scpi-def.o(i.ISLEWSET) refers to ffixui.o(.text) for __aeabi_f2uiz
    scpi-def.o(i.ISLEWSET) refers to parser.o(i.SCPI_ResultCharacters) for SCPI_ResultCharacters
    scpi-def.o(i.ISLEWSET) refers to modbus.o(.bss) for Run_Control
    scpi-def.o(i.ISLEWSET) refers to scpi-def.o(.constdata) for .constdata
    scpi-def.o(i.MODEQ) refers to parser.o(i.SCPI_ChoiceToName) for SCPI_ChoiceToName
    scpi-def.o(i.MODEQ) refers to parser.o(i.SCPI_ResultCharacters) for SCPI_ResultCharacters
    scpi-def.o(i.MODEQ) refers to modbus.o(.bss) for Run_Control
    scpi-def.o(i.MODEQ) refers to scpi-def.o(.data) for .data
    scpi-def.o(i.MODESET) refers to parser.o(i.SCPI_ParamChoice) for SCPI_ParamChoice
    scpi-def.o(i.MODESET) refers to parser.o(i.SCPI_ResultCharacters) for SCPI_ResultCharacters
    scpi-def.o(i.MODESET) refers to scpi-def.o(.data) for .data
    scpi-def.o(i.MODESET) refers to modbus.o(.bss) for Run_Control
    scpi-def.o(i.MODESET) refers to scpi-def.o(.constdata) for .constdata
    scpi-def.o(i.My_CoreTstQ) refers to parser.o(i.SCPI_ResultInt32) for SCPI_ResultInt32
    scpi-def.o(i.POWERQ) refers to ffltui.o(.text) for __aeabi_ui2f
    scpi-def.o(i.POWERQ) refers to fdiv.o(.text) for __aeabi_fdiv
    scpi-def.o(i.POWERQ) refers to parser.o(i.SCPI_ResultFloat) for SCPI_ResultFloat
    scpi-def.o(i.POWERQ) refers to modbus.o(.bss) for Run_Control
    scpi-def.o(i.PPROTECTQ) refers to ffltui.o(.text) for __aeabi_ui2f
    scpi-def.o(i.PPROTECTQ) refers to fdiv.o(.text) for __aeabi_fdiv
    scpi-def.o(i.PPROTECTQ) refers to parser.o(i.SCPI_ResultFloat) for SCPI_ResultFloat
    scpi-def.o(i.PPROTECTQ) refers to modbus.o(.bss) for Run_Control
    scpi-def.o(i.PPROTECTSET) refers to parser.o(i.SCPI_ParamFloat) for SCPI_ParamFloat
    scpi-def.o(i.PPROTECTSET) refers to fmul.o(.text) for __aeabi_fmul
    scpi-def.o(i.PPROTECTSET) refers to ffixui.o(.text) for __aeabi_f2uiz
    scpi-def.o(i.PPROTECTSET) refers to parser.o(i.SCPI_ResultCharacters) for SCPI_ResultCharacters
    scpi-def.o(i.PPROTECTSET) refers to modbus.o(.bss) for Run_Control
    scpi-def.o(i.PPROTECTSET) refers to scpi-def.o(.constdata) for .constdata
    scpi-def.o(i.REMOTEQ) refers to ffltui.o(.text) for __aeabi_ui2f
    scpi-def.o(i.REMOTEQ) refers to parser.o(i.SCPI_ResultFloat) for SCPI_ResultFloat
    scpi-def.o(i.REMOTEQ) refers to modbus.o(.bss) for Run_Control
    scpi-def.o(i.REMOTESET) refers to parser.o(i.SCPI_ParamUInt32) for SCPI_ParamUInt32
    scpi-def.o(i.REMOTESET) refers to parser.o(i.SCPI_ResultCharacters) for SCPI_ResultCharacters
    scpi-def.o(i.REMOTESET) refers to modbus.o(.bss) for Run_Control
    scpi-def.o(i.REMOTESET) refers to scpi-def.o(.constdata) for .constdata
    scpi-def.o(i.RESQ) refers to ffltui.o(.text) for __aeabi_ui2f
    scpi-def.o(i.RESQ) refers to fdiv.o(.text) for __aeabi_fdiv
    scpi-def.o(i.RESQ) refers to parser.o(i.SCPI_ResultFloat) for SCPI_ResultFloat
    scpi-def.o(i.RESQ) refers to modbus.o(.bss) for Run_Control
    scpi-def.o(i.TEST_ArbQ) refers to parser.o(i.SCPI_ParamArbitraryBlock) for SCPI_ParamArbitraryBlock
    scpi-def.o(i.TEST_ArbQ) refers to parser.o(i.SCPI_ResultArbitraryBlock) for SCPI_ResultArbitraryBlock
    scpi-def.o(i.TEST_Bool) refers to parser.o(i.SCPI_ParamBool) for SCPI_ParamBool
    scpi-def.o(i.TEST_Chanlst) refers to parser.o(i.SCPI_Parameter) for SCPI_Parameter
    scpi-def.o(i.TEST_Chanlst) refers to expression.o(i.SCPI_ExprChannelListEntry) for SCPI_ExprChannelListEntry
    scpi-def.o(i.TEST_ChoiceQ) refers to parser.o(i.SCPI_ParamChoice) for SCPI_ParamChoice
    scpi-def.o(i.TEST_ChoiceQ) refers to parser.o(i.SCPI_ChoiceToName) for SCPI_ChoiceToName
    scpi-def.o(i.TEST_ChoiceQ) refers to parser.o(i.SCPI_ResultInt32) for SCPI_ResultInt32
    scpi-def.o(i.TEST_ChoiceQ) refers to scpi-def.o(.data) for .data
    scpi-def.o(i.TEST_Numbers) refers to parser.o(i.SCPI_CommandNumbers) for SCPI_CommandNumbers
    scpi-def.o(i.TEST_Text) refers to parser.o(i.SCPI_ParamCopyText) for SCPI_ParamCopyText
    scpi-def.o(i.VOFFQ) refers to ffltui.o(.text) for __aeabi_ui2f
    scpi-def.o(i.VOFFQ) refers to fdiv.o(.text) for __aeabi_fdiv
    scpi-def.o(i.VOFFQ) refers to parser.o(i.SCPI_ResultFloat) for SCPI_ResultFloat
    scpi-def.o(i.VOFFQ) refers to modbus.o(.bss) for Run_Control
    scpi-def.o(i.VOFFSET) refers to parser.o(i.SCPI_ParamFloat) for SCPI_ParamFloat
    scpi-def.o(i.VOFFSET) refers to fmul.o(.text) for __aeabi_fmul
    scpi-def.o(i.VOFFSET) refers to ffixui.o(.text) for __aeabi_f2uiz
    scpi-def.o(i.VOFFSET) refers to parser.o(i.SCPI_ResultCharacters) for SCPI_ResultCharacters
    scpi-def.o(i.VOFFSET) refers to modbus.o(.bss) for Run_Control
    scpi-def.o(i.VOFFSET) refers to scpi-def.o(.constdata) for .constdata
    scpi-def.o(i.VOLTAGEQ) refers to ffltui.o(.text) for __aeabi_ui2f
    scpi-def.o(i.VOLTAGEQ) refers to fdiv.o(.text) for __aeabi_fdiv
    scpi-def.o(i.VOLTAGEQ) refers to parser.o(i.SCPI_ResultFloat) for SCPI_ResultFloat
    scpi-def.o(i.VOLTAGEQ) refers to modbus.o(.bss) for Run_Control
    scpi-def.o(i.VONQ) refers to ffltui.o(.text) for __aeabi_ui2f
    scpi-def.o(i.VONQ) refers to fdiv.o(.text) for __aeabi_fdiv
    scpi-def.o(i.VONQ) refers to parser.o(i.SCPI_ResultFloat) for SCPI_ResultFloat
    scpi-def.o(i.VONQ) refers to modbus.o(.bss) for Run_Control
    scpi-def.o(i.VONSET) refers to parser.o(i.SCPI_ParamFloat) for SCPI_ParamFloat
    scpi-def.o(i.VONSET) refers to fmul.o(.text) for __aeabi_fmul
    scpi-def.o(i.VONSET) refers to ffixui.o(.text) for __aeabi_f2uiz
    scpi-def.o(i.VONSET) refers to parser.o(i.SCPI_ResultCharacters) for SCPI_ResultCharacters
    scpi-def.o(i.VONSET) refers to modbus.o(.bss) for Run_Control
    scpi-def.o(i.VONSET) refers to scpi-def.o(.constdata) for .constdata
    scpi-def.o(i.VPROTECTQ) refers to ffltui.o(.text) for __aeabi_ui2f
    scpi-def.o(i.VPROTECTQ) refers to fdiv.o(.text) for __aeabi_fdiv
    scpi-def.o(i.VPROTECTQ) refers to parser.o(i.SCPI_ResultFloat) for SCPI_ResultFloat
    scpi-def.o(i.VPROTECTQ) refers to modbus.o(.bss) for Run_Control
    scpi-def.o(i.VPROTECTSET) refers to parser.o(i.SCPI_ParamFloat) for SCPI_ParamFloat
    scpi-def.o(i.VPROTECTSET) refers to fmul.o(.text) for __aeabi_fmul
    scpi-def.o(i.VPROTECTSET) refers to ffixui.o(.text) for __aeabi_f2uiz
    scpi-def.o(i.VPROTECTSET) refers to parser.o(i.SCPI_ResultCharacters) for SCPI_ResultCharacters
    scpi-def.o(i.VPROTECTSET) refers to modbus.o(.bss) for Run_Control
    scpi-def.o(i.VPROTECTSET) refers to scpi-def.o(.constdata) for .constdata
    scpi-def.o(i.VRANGEQ) refers to ffltui.o(.text) for __aeabi_ui2f
    scpi-def.o(i.VRANGEQ) refers to parser.o(i.SCPI_ResultFloat) for SCPI_ResultFloat
    scpi-def.o(i.VRANGEQ) refers to modbus.o(.bss) for Run_Control
    scpi-def.o(i.VRANGESET) refers to parser.o(i.SCPI_ParamUInt32) for SCPI_ParamUInt32
    scpi-def.o(i.VRANGESET) refers to parser.o(i.SCPI_ResultCharacters) for SCPI_ResultCharacters
    scpi-def.o(i.VRANGESET) refers to modbus.o(.bss) for Run_Control
    scpi-def.o(i.VRANGESET) refers to scpi-def.o(.constdata) for .constdata
    scpi-def.o(.constdata) refers to scpi-def.o(.conststring) for .conststring
    scpi-def.o(.constdata) refers to ieee488.o(i.SCPI_CoreCls) for SCPI_CoreCls
    scpi-def.o(.constdata) refers to ieee488.o(i.SCPI_CoreEse) for SCPI_CoreEse
    scpi-def.o(.constdata) refers to ieee488.o(i.SCPI_CoreEseQ) for SCPI_CoreEseQ
    scpi-def.o(.constdata) refers to ieee488.o(i.SCPI_CoreEsrQ) for SCPI_CoreEsrQ
    scpi-def.o(.constdata) refers to ieee488.o(i.SCPI_CoreIdnQ) for SCPI_CoreIdnQ
    scpi-def.o(.constdata) refers to ieee488.o(i.SCPI_CoreOpc) for SCPI_CoreOpc
    scpi-def.o(.constdata) refers to ieee488.o(i.SCPI_CoreOpcQ) for SCPI_CoreOpcQ
    scpi-def.o(.constdata) refers to ieee488.o(i.SCPI_CoreRst) for SCPI_CoreRst
    scpi-def.o(.constdata) refers to ieee488.o(i.SCPI_CoreSre) for SCPI_CoreSre
    scpi-def.o(.constdata) refers to ieee488.o(i.SCPI_CoreSreQ) for SCPI_CoreSreQ
    scpi-def.o(.constdata) refers to ieee488.o(i.SCPI_CoreStbQ) for SCPI_CoreStbQ
    scpi-def.o(.constdata) refers to scpi-def.o(i.My_CoreTstQ) for My_CoreTstQ
    scpi-def.o(.constdata) refers to ieee488.o(i.SCPI_CoreWai) for SCPI_CoreWai
    scpi-def.o(.constdata) refers to minimal.o(i.SCPI_SystemErrorNextQ) for SCPI_SystemErrorNextQ
    scpi-def.o(.constdata) refers to minimal.o(i.SCPI_SystemErrorCountQ) for SCPI_SystemErrorCountQ
    scpi-def.o(.constdata) refers to minimal.o(i.SCPI_SystemVersionQ) for SCPI_SystemVersionQ
    scpi-def.o(.constdata) refers to minimal.o(i.SCPI_StatusQuestionableEventQ) for SCPI_StatusQuestionableEventQ
    scpi-def.o(.constdata) refers to minimal.o(i.SCPI_StatusQuestionableEnable) for SCPI_StatusQuestionableEnable
    scpi-def.o(.constdata) refers to minimal.o(i.SCPI_StatusQuestionableEnableQ) for SCPI_StatusQuestionableEnableQ
    scpi-def.o(.constdata) refers to minimal.o(i.SCPI_StatusPreset) for SCPI_StatusPreset
    scpi-def.o(.constdata) refers to scpi-def.o(i.DMM_ConfigureVoltageDc) for DMM_ConfigureVoltageDc
    scpi-def.o(.constdata) refers to minimal.o(i.SCPI_StubQ) for SCPI_StubQ
    scpi-def.o(.constdata) refers to scpi-def.o(i.DMM_MeasureVoltageAcQ) for DMM_MeasureVoltageAcQ
    scpi-def.o(.constdata) refers to scpi-def.o(i.TEST_Bool) for TEST_Bool
    scpi-def.o(.constdata) refers to scpi-def.o(i.TEST_ChoiceQ) for TEST_ChoiceQ
    scpi-def.o(.constdata) refers to scpi-def.o(i.TEST_Numbers) for TEST_Numbers
    scpi-def.o(.constdata) refers to scpi-def.o(i.TEST_Text) for TEST_Text
    scpi-def.o(.constdata) refers to scpi-def.o(i.TEST_ArbQ) for TEST_ArbQ
    scpi-def.o(.constdata) refers to scpi-def.o(i.TEST_Chanlst) for TEST_Chanlst
    scpi-def.o(.constdata) refers to scpi-def.o(i.REMOTESET) for REMOTESET
    scpi-def.o(.constdata) refers to scpi-def.o(i.REMOTEQ) for REMOTEQ
    scpi-def.o(.constdata) refers to scpi-def.o(i.INPUTSET) for INPUTSET
    scpi-def.o(.constdata) refers to scpi-def.o(i.INPUTQ) for INPUTQ
    scpi-def.o(.constdata) refers to scpi-def.o(i.VRANGESET) for VRANGESET
    scpi-def.o(.constdata) refers to scpi-def.o(i.VRANGEQ) for VRANGEQ
    scpi-def.o(.constdata) refers to scpi-def.o(i.IRANGESET) for IRANGESET
    scpi-def.o(.constdata) refers to scpi-def.o(i.IRANGEQ) for IRANGEQ
    scpi-def.o(.constdata) refers to scpi-def.o(i.ISLEWSET) for ISLEWSET
    scpi-def.o(.constdata) refers to scpi-def.o(i.ISLEWQ) for ISLEWQ
    scpi-def.o(.constdata) refers to scpi-def.o(i.ISLEWRSET) for ISLEWRSET
    scpi-def.o(.constdata) refers to scpi-def.o(i.ISLEWRQ) for ISLEWRQ
    scpi-def.o(.constdata) refers to scpi-def.o(i.ISLEWFSET) for ISLEWFSET
    scpi-def.o(.constdata) refers to scpi-def.o(i.ISLEWFQ) for ISLEWFQ
    scpi-def.o(.constdata) refers to scpi-def.o(i.CPROTECTSET) for CPROTECTSET
    scpi-def.o(.constdata) refers to scpi-def.o(i.CPROTECTQ) for CPROTECTQ
    scpi-def.o(.constdata) refers to scpi-def.o(i.VPROTECTSET) for VPROTECTSET
    scpi-def.o(.constdata) refers to scpi-def.o(i.VPROTECTQ) for VPROTECTQ
    scpi-def.o(.constdata) refers to scpi-def.o(i.PPROTECTSET) for PPROTECTSET
    scpi-def.o(.constdata) refers to scpi-def.o(i.PPROTECTQ) for PPROTECTQ
    scpi-def.o(.constdata) refers to scpi-def.o(i.VONSET) for VONSET
    scpi-def.o(.constdata) refers to scpi-def.o(i.VONQ) for VONQ
    scpi-def.o(.constdata) refers to scpi-def.o(i.VOFFSET) for VOFFSET
    scpi-def.o(.constdata) refers to scpi-def.o(i.VOFFQ) for VOFFQ
    scpi-def.o(.constdata) refers to scpi-def.o(i.MODESET) for MODESET
    scpi-def.o(.constdata) refers to scpi-def.o(i.MODEQ) for MODEQ
    scpi-def.o(.constdata) refers to scpi-def.o(i.CCSET) for CCSET
    scpi-def.o(.constdata) refers to scpi-def.o(i.CCQ) for CCQ
    scpi-def.o(.constdata) refers to scpi-def.o(i.CVSET) for CVSET
    scpi-def.o(.constdata) refers to scpi-def.o(i.CVQ) for CVQ
    scpi-def.o(.constdata) refers to scpi-def.o(i.CPSET) for CPSET
    scpi-def.o(.constdata) refers to scpi-def.o(i.CPQ) for CPQ
    scpi-def.o(.constdata) refers to scpi-def.o(i.CRSET) for CRSET
    scpi-def.o(.constdata) refers to scpi-def.o(i.CRQ) for CRQ
    scpi-def.o(.constdata) refers to scpi-def.o(i.DYNHSET) for DYNHSET
    scpi-def.o(.constdata) refers to scpi-def.o(i.DYNHQ) for DYNHQ
    scpi-def.o(.constdata) refers to scpi-def.o(i.DYNHDSET) for DYNHDSET
    scpi-def.o(.constdata) refers to scpi-def.o(i.DYNHDQ) for DYNHDQ
    scpi-def.o(.constdata) refers to scpi-def.o(i.DYNLSET) for DYNLSET
    scpi-def.o(.constdata) refers to scpi-def.o(i.DYNLQ) for DYNLQ
    scpi-def.o(.constdata) refers to scpi-def.o(i.DYNLDSET) for DYNLDSET
    scpi-def.o(.constdata) refers to scpi-def.o(i.DYNLDQ) for DYNLDQ
    scpi-def.o(.constdata) refers to scpi-def.o(i.DYNSLEWSET) for DYNSLEWSET
    scpi-def.o(.constdata) refers to scpi-def.o(i.DYNSLEWQ) for DYNSLEWQ
    scpi-def.o(.constdata) refers to scpi-def.o(i.DYNSLEWRSET) for DYNSLEWRSET
    scpi-def.o(.constdata) refers to scpi-def.o(i.DYNSLEWRQ) for DYNSLEWRQ
    scpi-def.o(.constdata) refers to scpi-def.o(i.DYNSLEWFSET) for DYNSLEWFSET
    scpi-def.o(.constdata) refers to scpi-def.o(i.DYNSLEWFQ) for DYNSLEWFQ
    scpi-def.o(.constdata) refers to scpi-def.o(i.DYNMODESET) for DYNMODESET
    scpi-def.o(.constdata) refers to scpi-def.o(i.DYNMODEQ) for DYNMODEQ
    scpi-def.o(.constdata) refers to scpi-def.o(i.VOLTAGEQ) for VOLTAGEQ
    scpi-def.o(.constdata) refers to scpi-def.o(i.CURRENTQ) for CURRENTQ
    scpi-def.o(.constdata) refers to scpi-def.o(i.POWERQ) for POWERQ
    scpi-def.o(.constdata) refers to scpi-def.o(i.RESQ) for RESQ
    scpi-def.o(.data) refers to scpi-def.o(.conststring) for .conststring
    scpi-def.o(.data) refers to main.o(i.SCPI_Write) for SCPI_Write
    error.o(i.SCPI_ErrorClear) refers to fifo.o(i.fifo_clear) for fifo_clear
    error.o(i.SCPI_ErrorClear) refers to error.o(i.SCPI_ErrorEmitEmpty) for SCPI_ErrorEmitEmpty
    error.o(i.SCPI_ErrorCount) refers to fifo.o(i.fifo_count) for fifo_count
    error.o(i.SCPI_ErrorEmit) refers to ieee488.o(i.SCPI_RegSetBits) for SCPI_RegSetBits
    error.o(i.SCPI_ErrorEmitEmpty) refers to error.o(i.SCPI_ErrorCount) for SCPI_ErrorCount
    error.o(i.SCPI_ErrorEmitEmpty) refers to ieee488.o(i.SCPI_RegGet) for SCPI_RegGet
    error.o(i.SCPI_ErrorEmitEmpty) refers to ieee488.o(i.SCPI_RegClearBits) for SCPI_RegClearBits
    error.o(i.SCPI_ErrorInit) refers to fifo.o(i.fifo_init) for fifo_init
    error.o(i.SCPI_ErrorPop) refers to fifo.o(i.fifo_remove) for fifo_remove
    error.o(i.SCPI_ErrorPop) refers to error.o(i.SCPI_ErrorEmitEmpty) for SCPI_ErrorEmitEmpty
    error.o(i.SCPI_ErrorPush) refers to error.o(i.SCPI_ErrorPushEx) for SCPI_ErrorPushEx
    error.o(i.SCPI_ErrorPushEx) refers to fifo.o(i.fifo_add) for fifo_add
    error.o(i.SCPI_ErrorPushEx) refers to fifo.o(i.fifo_remove_last) for fifo_remove_last
    error.o(i.SCPI_ErrorPushEx) refers to utils.o(i.BSD_strnlen) for BSD_strnlen
    error.o(i.SCPI_ErrorPushEx) refers to ieee488.o(i.SCPI_RegSetBits) for SCPI_RegSetBits
    error.o(i.SCPI_ErrorPushEx) refers to error.o(i.SCPI_ErrorEmit) for SCPI_ErrorEmit
    error.o(i.SCPI_ErrorPushEx) refers to error.o(.constdata) for .constdata
    expression.o(i.SCPI_ExprChannelListEntry) refers to lexer.o(i.scpiLex_SpecificCharacter) for scpiLex_SpecificCharacter
    expression.o(i.SCPI_ExprChannelListEntry) refers to error.o(i.SCPI_ErrorPush) for SCPI_ErrorPush
    expression.o(i.SCPI_ExprChannelListEntry) refers to expression.o(i.channelRange) for channelRange
    expression.o(i.SCPI_ExprChannelListEntry) refers to lexer.o(i.scpiLex_Comma) for scpiLex_Comma
    expression.o(i.SCPI_ExprChannelListEntry) refers to lexer.o(i.scpiLex_IsEos) for scpiLex_IsEos
    expression.o(i.SCPI_ExprNumericListEntry) refers to error.o(i.SCPI_ErrorPush) for SCPI_ErrorPush
    expression.o(i.SCPI_ExprNumericListEntry) refers to lexer.o(i.scpiLex_DecimalNumericProgramData) for scpiLex_DecimalNumericProgramData
    expression.o(i.SCPI_ExprNumericListEntry) refers to lexer.o(i.scpiLex_Colon) for scpiLex_Colon
    expression.o(i.SCPI_ExprNumericListEntry) refers to lexer.o(i.scpiLex_Comma) for scpiLex_Comma
    expression.o(i.SCPI_ExprNumericListEntry) refers to lexer.o(i.scpiLex_IsEos) for scpiLex_IsEos
    expression.o(i.SCPI_ExprNumericListEntryDouble) refers to expression.o(i.SCPI_ExprNumericListEntry) for SCPI_ExprNumericListEntry
    expression.o(i.SCPI_ExprNumericListEntryDouble) refers to parser.o(i.SCPI_ParamToDouble) for SCPI_ParamToDouble
    expression.o(i.SCPI_ExprNumericListEntryInt) refers to expression.o(i.SCPI_ExprNumericListEntry) for SCPI_ExprNumericListEntry
    expression.o(i.SCPI_ExprNumericListEntryInt) refers to parser.o(i.SCPI_ParamToInt32) for SCPI_ParamToInt32
    expression.o(i.channelRange) refers to expression.o(i.channelSpec) for channelSpec
    expression.o(i.channelRange) refers to lexer.o(i.scpiLex_Colon) for scpiLex_Colon
    expression.o(i.channelSpec) refers to lexer.o(i.scpiLex_DecimalNumericProgramData) for scpiLex_DecimalNumericProgramData
    expression.o(i.channelSpec) refers to parser.o(i.SCPI_ParamToInt32) for SCPI_ParamToInt32
    expression.o(i.channelSpec) refers to lexer.o(i.scpiLex_SpecificCharacter) for scpiLex_SpecificCharacter
    fifo.o(i.fifo_add) refers to fifo.o(i.fifo_is_full) for fifo_is_full
    fifo.o(i.fifo_remove) refers to fifo.o(i.fifo_is_empty) for fifo_is_empty
    fifo.o(i.fifo_remove_last) refers to fifo.o(i.fifo_is_empty) for fifo_is_empty
    ieee488.o(i.SCPI_CoreCls) refers to ieee488.o(i.SCPI_EventClear) for SCPI_EventClear
    ieee488.o(i.SCPI_CoreCls) refers to error.o(i.SCPI_ErrorClear) for SCPI_ErrorClear
    ieee488.o(i.SCPI_CoreCls) refers to ieee488.o(i.SCPI_RegSet) for SCPI_RegSet
    ieee488.o(i.SCPI_CoreEse) refers to parser.o(i.SCPI_ParamInt32) for SCPI_ParamInt32
    ieee488.o(i.SCPI_CoreEse) refers to ieee488.o(i.SCPI_RegSet) for SCPI_RegSet
    ieee488.o(i.SCPI_CoreEseQ) refers to ieee488.o(i.SCPI_RegGet) for SCPI_RegGet
    ieee488.o(i.SCPI_CoreEseQ) refers to parser.o(i.SCPI_ResultInt32) for SCPI_ResultInt32
    ieee488.o(i.SCPI_CoreEsrQ) refers to ieee488.o(i.SCPI_RegGet) for SCPI_RegGet
    ieee488.o(i.SCPI_CoreEsrQ) refers to parser.o(i.SCPI_ResultInt32) for SCPI_ResultInt32
    ieee488.o(i.SCPI_CoreEsrQ) refers to ieee488.o(i.SCPI_RegSet) for SCPI_RegSet
    ieee488.o(i.SCPI_CoreIdnQ) refers to strlen.o(.text) for strlen
    ieee488.o(i.SCPI_CoreIdnQ) refers to parser.o(i.SCPI_ResultCharacters) for SCPI_ResultCharacters
    ieee488.o(i.SCPI_CoreOpc) refers to ieee488.o(i.SCPI_RegSetBits) for SCPI_RegSetBits
    ieee488.o(i.SCPI_CoreOpcQ) refers to parser.o(i.SCPI_ResultInt32) for SCPI_ResultInt32
    ieee488.o(i.SCPI_CoreSre) refers to parser.o(i.SCPI_ParamInt32) for SCPI_ParamInt32
    ieee488.o(i.SCPI_CoreSre) refers to ieee488.o(i.SCPI_RegSet) for SCPI_RegSet
    ieee488.o(i.SCPI_CoreSreQ) refers to ieee488.o(i.SCPI_RegGet) for SCPI_RegGet
    ieee488.o(i.SCPI_CoreSreQ) refers to parser.o(i.SCPI_ResultInt32) for SCPI_ResultInt32
    ieee488.o(i.SCPI_CoreStbQ) refers to ieee488.o(i.SCPI_RegGet) for SCPI_RegGet
    ieee488.o(i.SCPI_CoreStbQ) refers to parser.o(i.SCPI_ResultInt32) for SCPI_ResultInt32
    ieee488.o(i.SCPI_CoreTstQ) refers to parser.o(i.SCPI_ResultInt32) for SCPI_ResultInt32
    ieee488.o(i.SCPI_EventClear) refers to ieee488.o(i.SCPI_RegSet) for SCPI_RegSet
    ieee488.o(i.SCPI_RegClearBits) refers to ieee488.o(i.SCPI_RegGet) for SCPI_RegGet
    ieee488.o(i.SCPI_RegClearBits) refers to ieee488.o(i.SCPI_RegSet) for SCPI_RegSet
    ieee488.o(i.SCPI_RegSet) refers to ieee488.o(i.SCPI_RegGet) for SCPI_RegGet
    ieee488.o(i.SCPI_RegSet) refers to ieee488.o(i.regUpdate) for regUpdate
    ieee488.o(i.SCPI_RegSet) refers to ieee488.o(i.regUpdateSTB) for regUpdateSTB
    ieee488.o(i.SCPI_RegSet) refers to ieee488.o(i.regUpdateEvent) for regUpdateEvent
    ieee488.o(i.SCPI_RegSetBits) refers to ieee488.o(i.SCPI_RegGet) for SCPI_RegGet
    ieee488.o(i.SCPI_RegSetBits) refers to ieee488.o(i.SCPI_RegSet) for SCPI_RegSet
    ieee488.o(i.regUpdate) refers to ieee488.o(i.SCPI_RegGet) for SCPI_RegGet
    ieee488.o(i.regUpdate) refers to ieee488.o(i.SCPI_RegSet) for SCPI_RegSet
    ieee488.o(i.regUpdateEvent) refers to ieee488.o(i.SCPI_RegGet) for SCPI_RegGet
    ieee488.o(i.regUpdateEvent) refers to ieee488.o(i.SCPI_RegSet) for SCPI_RegSet
    ieee488.o(i.regUpdateSTB) refers to ieee488.o(i.SCPI_RegGet) for SCPI_RegGet
    ieee488.o(i.regUpdateSTB) refers to ieee488.o(i.SCPI_RegSetBits) for SCPI_RegSetBits
    ieee488.o(i.regUpdateSTB) refers to ieee488.o(i.SCPI_RegClearBits) for SCPI_RegClearBits
    lexer.o(i.scpiLex_ArbitraryBlockProgramData) refers to lexer.o(i.skipChr) for skipChr
    lexer.o(i.scpiLex_ArbitraryBlockProgramData) refers to lexer.o(i.iseos) for iseos
    lexer.o(i.scpiLex_ArbitraryBlockProgramData) refers to ctype_o.o(.text) for __rt_ctype_table
    lexer.o(i.scpiLex_CharacterProgramData) refers to lexer.o(i.iseos) for iseos
    lexer.o(i.scpiLex_CharacterProgramData) refers to ctype_o.o(.text) for __rt_ctype_table
    lexer.o(i.scpiLex_CharacterProgramData) refers to lexer.o(i.ischr) for ischr
    lexer.o(i.scpiLex_Colon) refers to lexer.o(i.skipChr) for skipChr
    lexer.o(i.scpiLex_Comma) refers to lexer.o(i.skipChr) for skipChr
    lexer.o(i.scpiLex_DecimalNumericProgramData) refers to lexer.o(i.skipPlusmn) for skipPlusmn
    lexer.o(i.scpiLex_DecimalNumericProgramData) refers to lexer.o(i.skipNumbers) for skipNumbers
    lexer.o(i.scpiLex_DecimalNumericProgramData) refers to lexer.o(i.skipChr) for skipChr
    lexer.o(i.scpiLex_DecimalNumericProgramData) refers to lexer.o(i.skipWs) for skipWs
    lexer.o(i.scpiLex_DecimalNumericProgramData) refers to lexer.o(i.iseos) for iseos
    lexer.o(i.scpiLex_IsEos) refers to lexer.o(i.iseos) for iseos
    lexer.o(i.scpiLex_NewLine) refers to lexer.o(i.skipChr) for skipChr
    lexer.o(i.scpiLex_NondecimalNumericData) refers to lexer.o(i.skipChr) for skipChr
    lexer.o(i.scpiLex_NondecimalNumericData) refers to lexer.o(i.iseos) for iseos
    lexer.o(i.scpiLex_NondecimalNumericData) refers to ctype_o.o(.text) for __rt_ctype_table
    lexer.o(i.scpiLex_ProgramExpression) refers to lexer.o(i.iseos) for iseos
    lexer.o(i.scpiLex_ProgramExpression) refers to lexer.o(i.ischr) for ischr
    lexer.o(i.scpiLex_ProgramHeader) refers to lexer.o(i.iseos) for iseos
    lexer.o(i.scpiLex_ProgramHeader) refers to lexer.o(i.ischr) for ischr
    lexer.o(i.scpiLex_ProgramHeader) refers to lexer.o(i.skipProgramMnemonic) for skipProgramMnemonic
    lexer.o(i.scpiLex_ProgramHeader) refers to lexer.o(i.skipChr) for skipChr
    lexer.o(i.scpiLex_ProgramHeader) refers to lexer.o(i.skipColon) for skipColon
    lexer.o(i.scpiLex_Semicolon) refers to lexer.o(i.skipChr) for skipChr
    lexer.o(i.scpiLex_SpecificCharacter) refers to lexer.o(i.skipChr) for skipChr
    lexer.o(i.scpiLex_StringProgramData) refers to lexer.o(i.iseos) for iseos
    lexer.o(i.scpiLex_StringProgramData) refers to lexer.o(i.skipQuoteProgramData) for skipQuoteProgramData
    lexer.o(i.scpiLex_StringProgramData) refers to lexer.o(i.ischr) for ischr
    lexer.o(i.scpiLex_SuffixProgramData) refers to lexer.o(i.skipChr) for skipChr
    lexer.o(i.scpiLex_SuffixProgramData) refers to lexer.o(i.skipAlpha) for skipAlpha
    lexer.o(i.scpiLex_SuffixProgramData) refers to lexer.o(i.skipDigit) for skipDigit
    lexer.o(i.scpiLex_SuffixProgramData) refers to lexer.o(i.iseos) for iseos
    lexer.o(i.scpiLex_SuffixProgramData) refers to lexer.o(i.ischr) for ischr
    lexer.o(i.scpiLex_WhiteSpace) refers to lexer.o(i.skipWs) for skipWs
    lexer.o(i.skipAlpha) refers to lexer.o(i.iseos) for iseos
    lexer.o(i.skipAlpha) refers to ctype_o.o(.text) for __rt_ctype_table
    lexer.o(i.skipChr) refers to lexer.o(i.iseos) for iseos
    lexer.o(i.skipChr) refers to lexer.o(i.ischr) for ischr
    lexer.o(i.skipColon) refers to lexer.o(i.iseos) for iseos
    lexer.o(i.skipColon) refers to lexer.o(i.ischr) for ischr
    lexer.o(i.skipDigit) refers to lexer.o(i.iseos) for iseos
    lexer.o(i.skipDigit) refers to ctype_o.o(.text) for __rt_ctype_table
    lexer.o(i.skipNumbers) refers to lexer.o(i.iseos) for iseos
    lexer.o(i.skipNumbers) refers to ctype_o.o(.text) for __rt_ctype_table
    lexer.o(i.skipPlusmn) refers to lexer.o(i.iseos) for iseos
    lexer.o(i.skipProgramMnemonic) refers to lexer.o(i.iseos) for iseos
    lexer.o(i.skipProgramMnemonic) refers to ctype_o.o(.text) for __rt_ctype_table
    lexer.o(i.skipProgramMnemonic) refers to lexer.o(i.ischr) for ischr
    lexer.o(i.skipQuoteProgramData) refers to lexer.o(i.ischr) for ischr
    lexer.o(i.skipQuoteProgramData) refers to lexer.o(i.iseos) for iseos
    lexer.o(i.skipWs) refers to lexer.o(i.iseos) for iseos
    minimal.o(i.SCPI_StatusOperationConditionQ) refers to ieee488.o(i.SCPI_RegGet) for SCPI_RegGet
    minimal.o(i.SCPI_StatusOperationConditionQ) refers to parser.o(i.SCPI_ResultInt32) for SCPI_ResultInt32
    minimal.o(i.SCPI_StatusOperationEnable) refers to parser.o(i.SCPI_ParamInt32) for SCPI_ParamInt32
    minimal.o(i.SCPI_StatusOperationEnable) refers to ieee488.o(i.SCPI_RegSet) for SCPI_RegSet
    minimal.o(i.SCPI_StatusOperationEnableQ) refers to ieee488.o(i.SCPI_RegGet) for SCPI_RegGet
    minimal.o(i.SCPI_StatusOperationEnableQ) refers to parser.o(i.SCPI_ResultInt32) for SCPI_ResultInt32
    minimal.o(i.SCPI_StatusOperationEventQ) refers to ieee488.o(i.SCPI_RegGet) for SCPI_RegGet
    minimal.o(i.SCPI_StatusOperationEventQ) refers to parser.o(i.SCPI_ResultInt32) for SCPI_ResultInt32
    minimal.o(i.SCPI_StatusOperationEventQ) refers to ieee488.o(i.SCPI_RegSet) for SCPI_RegSet
    minimal.o(i.SCPI_StatusPreset) refers to ieee488.o(i.SCPI_RegSet) for SCPI_RegSet
    minimal.o(i.SCPI_StatusQuestionableConditionQ) refers to ieee488.o(i.SCPI_RegGet) for SCPI_RegGet
    minimal.o(i.SCPI_StatusQuestionableConditionQ) refers to parser.o(i.SCPI_ResultInt32) for SCPI_ResultInt32
    minimal.o(i.SCPI_StatusQuestionableEnable) refers to parser.o(i.SCPI_ParamInt32) for SCPI_ParamInt32
    minimal.o(i.SCPI_StatusQuestionableEnable) refers to ieee488.o(i.SCPI_RegSet) for SCPI_RegSet
    minimal.o(i.SCPI_StatusQuestionableEnableQ) refers to ieee488.o(i.SCPI_RegGet) for SCPI_RegGet
    minimal.o(i.SCPI_StatusQuestionableEnableQ) refers to parser.o(i.SCPI_ResultInt32) for SCPI_ResultInt32
    minimal.o(i.SCPI_StatusQuestionableEventQ) refers to ieee488.o(i.SCPI_RegGet) for SCPI_RegGet
    minimal.o(i.SCPI_StatusQuestionableEventQ) refers to parser.o(i.SCPI_ResultInt32) for SCPI_ResultInt32
    minimal.o(i.SCPI_StatusQuestionableEventQ) refers to ieee488.o(i.SCPI_RegSet) for SCPI_RegSet
    minimal.o(i.SCPI_StubQ) refers to parser.o(i.SCPI_ResultInt32) for SCPI_ResultInt32
    minimal.o(i.SCPI_SystemErrorCountQ) refers to error.o(i.SCPI_ErrorCount) for SCPI_ErrorCount
    minimal.o(i.SCPI_SystemErrorCountQ) refers to parser.o(i.SCPI_ResultInt32) for SCPI_ResultInt32
    minimal.o(i.SCPI_SystemErrorNextQ) refers to error.o(i.SCPI_ErrorPop) for SCPI_ErrorPop
    minimal.o(i.SCPI_SystemErrorNextQ) refers to parser.o(i.SCPI_ResultError) for SCPI_ResultError
    minimal.o(i.SCPI_SystemVersionQ) refers to parser.o(i.SCPI_ResultCharacters) for SCPI_ResultCharacters
    parser.o(i.ParamSignToUInt32) refers to error.o(i.SCPI_ErrorPush) for SCPI_ErrorPush
    parser.o(i.ParamSignToUInt32) refers to utils.o(i.strBaseToUInt32) for strBaseToUInt32
    parser.o(i.ParamSignToUInt32) refers to utils.o(i.strBaseToInt32) for strBaseToInt32
    parser.o(i.ParamSignToUInt64) refers to error.o(i.SCPI_ErrorPush) for SCPI_ErrorPush
    parser.o(i.ParamSignToUInt64) refers to utils.o(i.strBaseToUInt64) for strBaseToUInt64
    parser.o(i.ParamSignToUInt64) refers to utils.o(i.strBaseToInt64) for strBaseToInt64
    parser.o(i.ParamSignUInt32) refers to parser.o(i.SCPI_Parameter) for SCPI_Parameter
    parser.o(i.ParamSignUInt32) refers to parser.o(i.SCPI_ParamIsNumber) for SCPI_ParamIsNumber
    parser.o(i.ParamSignUInt32) refers to parser.o(i.ParamSignToUInt32) for ParamSignToUInt32
    parser.o(i.ParamSignUInt32) refers to error.o(i.SCPI_ErrorPush) for SCPI_ErrorPush
    parser.o(i.ParamSignUInt64) refers to parser.o(i.SCPI_Parameter) for SCPI_Parameter
    parser.o(i.ParamSignUInt64) refers to parser.o(i.SCPI_ParamIsNumber) for SCPI_ParamIsNumber
    parser.o(i.ParamSignUInt64) refers to parser.o(i.ParamSignToUInt64) for ParamSignToUInt64
    parser.o(i.ParamSignUInt64) refers to error.o(i.SCPI_ErrorPush) for SCPI_ErrorPush
    parser.o(i.SCPI_CommandNumbers) refers to utils.o(i.matchCommand) for matchCommand
    parser.o(i.SCPI_Init) refers to memseta.o(.text) for __aeabi_memclr4
    parser.o(i.SCPI_Init) refers to error.o(i.SCPI_ErrorInit) for SCPI_ErrorInit
    parser.o(i.SCPI_Input) refers to error.o(i.SCPI_ErrorPush) for SCPI_ErrorPush
    parser.o(i.SCPI_Input) refers to parser.o(i.SCPI_Parse) for SCPI_Parse
    parser.o(i.SCPI_Input) refers to memmovea.o(.text) for __aeabi_memcpy
    parser.o(i.SCPI_Input) refers to parser.o(i.scpiParser_detectProgramMessageUnit) for scpiParser_detectProgramMessageUnit
    parser.o(i.SCPI_IsCmd) refers to strlen.o(.text) for strlen
    parser.o(i.SCPI_IsCmd) refers to utils.o(i.matchCommand) for matchCommand
    parser.o(i.SCPI_Match) refers to utils.o(i.matchCommand) for matchCommand
    parser.o(i.SCPI_ParamArbitraryBlock) refers to parser.o(i.SCPI_Parameter) for SCPI_Parameter
    parser.o(i.SCPI_ParamArbitraryBlock) refers to error.o(i.SCPI_ErrorPush) for SCPI_ErrorPush
    parser.o(i.SCPI_ParamArrayDouble) refers to parser.o(i.SCPI_ParamDouble) for SCPI_ParamDouble
    parser.o(i.SCPI_ParamArrayFloat) refers to parser.o(i.SCPI_ParamFloat) for SCPI_ParamFloat
    parser.o(i.SCPI_ParamArrayInt32) refers to parser.o(i.SCPI_ParamInt32) for SCPI_ParamInt32
    parser.o(i.SCPI_ParamArrayInt64) refers to parser.o(i.SCPI_ParamInt64) for SCPI_ParamInt64
    parser.o(i.SCPI_ParamArrayUInt32) refers to parser.o(i.SCPI_ParamUInt32) for SCPI_ParamUInt32
    parser.o(i.SCPI_ParamArrayUInt64) refers to parser.o(i.SCPI_ParamUInt64) for SCPI_ParamUInt64
    parser.o(i.SCPI_ParamBool) refers to parser.o(i.SCPI_Parameter) for SCPI_Parameter
    parser.o(i.SCPI_ParamBool) refers to parser.o(i.SCPI_ParamToChoice) for SCPI_ParamToChoice
    parser.o(i.SCPI_ParamBool) refers to error.o(i.SCPI_ErrorPush) for SCPI_ErrorPush
    parser.o(i.SCPI_ParamBool) refers to parser.o(i.SCPI_ParamToInt32) for SCPI_ParamToInt32
    parser.o(i.SCPI_ParamBool) refers to parser.o(.constdata) for .constdata
    parser.o(i.SCPI_ParamCharacters) refers to parser.o(i.SCPI_Parameter) for SCPI_Parameter
    parser.o(i.SCPI_ParamCharacters) refers to error.o(i.SCPI_ErrorPush) for SCPI_ErrorPush
    parser.o(i.SCPI_ParamChoice) refers to parser.o(i.SCPI_Parameter) for SCPI_Parameter
    parser.o(i.SCPI_ParamChoice) refers to parser.o(i.SCPI_ParamToChoice) for SCPI_ParamToChoice
    parser.o(i.SCPI_ParamChoice) refers to error.o(i.SCPI_ErrorPush) for SCPI_ErrorPush
    parser.o(i.SCPI_ParamCopyText) refers to parser.o(i.SCPI_Parameter) for SCPI_Parameter
    parser.o(i.SCPI_ParamCopyText) refers to error.o(i.SCPI_ErrorPush) for SCPI_ErrorPush
    parser.o(i.SCPI_ParamDouble) refers to parser.o(i.SCPI_Parameter) for SCPI_Parameter
    parser.o(i.SCPI_ParamDouble) refers to parser.o(i.SCPI_ParamIsNumber) for SCPI_ParamIsNumber
    parser.o(i.SCPI_ParamDouble) refers to parser.o(i.SCPI_ParamToDouble) for SCPI_ParamToDouble
    parser.o(i.SCPI_ParamDouble) refers to error.o(i.SCPI_ErrorPush) for SCPI_ErrorPush
    parser.o(i.SCPI_ParamFloat) refers to parser.o(i.SCPI_Parameter) for SCPI_Parameter
    parser.o(i.SCPI_ParamFloat) refers to parser.o(i.SCPI_ParamIsNumber) for SCPI_ParamIsNumber
    parser.o(i.SCPI_ParamFloat) refers to parser.o(i.SCPI_ParamToFloat) for SCPI_ParamToFloat
    parser.o(i.SCPI_ParamFloat) refers to error.o(i.SCPI_ErrorPush) for SCPI_ErrorPush
    parser.o(i.SCPI_ParamInt32) refers to parser.o(i.ParamSignUInt32) for ParamSignUInt32
    parser.o(i.SCPI_ParamInt64) refers to parser.o(i.ParamSignUInt64) for ParamSignUInt64
    parser.o(i.SCPI_ParamToChoice) refers to error.o(i.SCPI_ErrorPush) for SCPI_ErrorPush
    parser.o(i.SCPI_ParamToChoice) refers to strlen.o(.text) for strlen
    parser.o(i.SCPI_ParamToChoice) refers to utils.o(i.matchPattern) for matchPattern
    parser.o(i.SCPI_ParamToDouble) refers to error.o(i.SCPI_ErrorPush) for SCPI_ErrorPush
    parser.o(i.SCPI_ParamToDouble) refers to parser.o(i.SCPI_ParamToUInt64) for SCPI_ParamToUInt64
    parser.o(i.SCPI_ParamToDouble) refers to dfltul.o(.text) for __aeabi_ul2d
    parser.o(i.SCPI_ParamToDouble) refers to utils.o(i.strToDouble) for strToDouble
    parser.o(i.SCPI_ParamToFloat) refers to error.o(i.SCPI_ErrorPush) for SCPI_ErrorPush
    parser.o(i.SCPI_ParamToFloat) refers to parser.o(i.SCPI_ParamToUInt32) for SCPI_ParamToUInt32
    parser.o(i.SCPI_ParamToFloat) refers to ffltui.o(.text) for __aeabi_ui2f
    parser.o(i.SCPI_ParamToFloat) refers to utils.o(i.strToFloat) for strToFloat
    parser.o(i.SCPI_ParamToInt32) refers to parser.o(i.ParamSignToUInt32) for ParamSignToUInt32
    parser.o(i.SCPI_ParamToInt64) refers to parser.o(i.ParamSignToUInt64) for ParamSignToUInt64
    parser.o(i.SCPI_ParamToUInt32) refers to parser.o(i.ParamSignToUInt32) for ParamSignToUInt32
    parser.o(i.SCPI_ParamToUInt64) refers to parser.o(i.ParamSignToUInt64) for ParamSignToUInt64
    parser.o(i.SCPI_ParamUInt32) refers to parser.o(i.ParamSignUInt32) for ParamSignUInt32
    parser.o(i.SCPI_ParamUInt64) refers to parser.o(i.ParamSignUInt64) for ParamSignUInt64
    parser.o(i.SCPI_Parameter) refers to parser.o(i.invalidateToken) for invalidateToken
    parser.o(i.SCPI_Parameter) refers to lexer.o(i.scpiLex_Comma) for scpiLex_Comma
    parser.o(i.SCPI_Parameter) refers to parser.o(i.scpiParser_parseProgramData) for scpiParser_parseProgramData
    parser.o(i.SCPI_Parameter) refers to error.o(i.SCPI_ErrorPush) for SCPI_ErrorPush
    parser.o(i.SCPI_Parse) refers to parser.o(i.scpiParser_detectProgramMessageUnit) for scpiParser_detectProgramMessageUnit
    parser.o(i.SCPI_Parse) refers to utils.o(i.composeCompoundCommand) for composeCompoundCommand
    parser.o(i.SCPI_Parse) refers to error.o(i.SCPI_ErrorPush) for SCPI_ErrorPush
    parser.o(i.SCPI_Parse) refers to utils.o(i.matchCommand) for matchCommand
    parser.o(i.SCPI_Parse) refers to parser.o(i.processCommand) for processCommand
    parser.o(i.SCPI_Parse) refers to error.o(i.SCPI_ErrorPushEx) for SCPI_ErrorPushEx
    parser.o(i.SCPI_Parse) refers to parser.o(i.writeData) for writeData
    parser.o(i.SCPI_Parse) refers to parser.o(.constdata) for .constdata
    parser.o(i.SCPI_ResultArbitraryBlock) refers to parser.o(i.SCPI_ResultArbitraryBlockHeader) for SCPI_ResultArbitraryBlockHeader
    parser.o(i.SCPI_ResultArbitraryBlock) refers to parser.o(i.SCPI_ResultArbitraryBlockData) for SCPI_ResultArbitraryBlockData
    parser.o(i.SCPI_ResultArbitraryBlockData) refers to error.o(i.SCPI_ErrorPush) for SCPI_ErrorPush
    parser.o(i.SCPI_ResultArbitraryBlockData) refers to parser.o(i.writeData) for writeData
    parser.o(i.SCPI_ResultArbitraryBlockHeader) refers to utils.o(i.SCPI_UInt32ToStrBase) for SCPI_UInt32ToStrBase
    parser.o(i.SCPI_ResultArbitraryBlockHeader) refers to strlen.o(.text) for strlen
    parser.o(i.SCPI_ResultArbitraryBlockHeader) refers to parser.o(i.writeData) for writeData
    parser.o(i.SCPI_ResultArrayDouble) refers to parser.o(i.produceResultArrayBinary) for produceResultArrayBinary
    parser.o(i.SCPI_ResultArrayDouble) refers to parser.o(i.SCPI_ResultDouble) for SCPI_ResultDouble
    parser.o(i.SCPI_ResultArrayFloat) refers to parser.o(i.produceResultArrayBinary) for produceResultArrayBinary
    parser.o(i.SCPI_ResultArrayFloat) refers to parser.o(i.SCPI_ResultFloat) for SCPI_ResultFloat
    parser.o(i.SCPI_ResultArrayInt16) refers to parser.o(i.produceResultArrayBinary) for produceResultArrayBinary
    parser.o(i.SCPI_ResultArrayInt16) refers to parser.o(i.SCPI_ResultInt32) for SCPI_ResultInt32
    parser.o(i.SCPI_ResultArrayInt32) refers to parser.o(i.produceResultArrayBinary) for produceResultArrayBinary
    parser.o(i.SCPI_ResultArrayInt32) refers to parser.o(i.SCPI_ResultInt32) for SCPI_ResultInt32
    parser.o(i.SCPI_ResultArrayInt64) refers to parser.o(i.produceResultArrayBinary) for produceResultArrayBinary
    parser.o(i.SCPI_ResultArrayInt64) refers to parser.o(i.SCPI_ResultInt64) for SCPI_ResultInt64
    parser.o(i.SCPI_ResultArrayInt8) refers to parser.o(i.produceResultArrayBinary) for produceResultArrayBinary
    parser.o(i.SCPI_ResultArrayInt8) refers to parser.o(i.SCPI_ResultInt32) for SCPI_ResultInt32
    parser.o(i.SCPI_ResultArrayUInt16) refers to parser.o(i.produceResultArrayBinary) for produceResultArrayBinary
    parser.o(i.SCPI_ResultArrayUInt16) refers to parser.o(i.SCPI_ResultUInt32Base) for SCPI_ResultUInt32Base
    parser.o(i.SCPI_ResultArrayUInt32) refers to parser.o(i.produceResultArrayBinary) for produceResultArrayBinary
    parser.o(i.SCPI_ResultArrayUInt32) refers to parser.o(i.SCPI_ResultUInt32Base) for SCPI_ResultUInt32Base
    parser.o(i.SCPI_ResultArrayUInt64) refers to parser.o(i.produceResultArrayBinary) for produceResultArrayBinary
    parser.o(i.SCPI_ResultArrayUInt64) refers to parser.o(i.SCPI_ResultUInt64Base) for SCPI_ResultUInt64Base
    parser.o(i.SCPI_ResultArrayUInt8) refers to parser.o(i.produceResultArrayBinary) for produceResultArrayBinary
    parser.o(i.SCPI_ResultArrayUInt8) refers to parser.o(i.SCPI_ResultUInt32Base) for SCPI_ResultUInt32Base
    parser.o(i.SCPI_ResultBool) refers to parser.o(i.resultUInt32BaseSign) for resultUInt32BaseSign
    parser.o(i.SCPI_ResultCharacters) refers to parser.o(i.writeDelimiter) for writeDelimiter
    parser.o(i.SCPI_ResultCharacters) refers to parser.o(i.writeData) for writeData
    parser.o(i.SCPI_ResultDouble) refers to utils.o(i.SCPI_DoubleToStr) for SCPI_DoubleToStr
    parser.o(i.SCPI_ResultDouble) refers to parser.o(i.writeDelimiter) for writeDelimiter
    parser.o(i.SCPI_ResultDouble) refers to parser.o(i.writeData) for writeData
    parser.o(i.SCPI_ResultError) refers to error.o(i.SCPI_ErrorTranslate) for SCPI_ErrorTranslate
    parser.o(i.SCPI_ResultError) refers to strlen.o(.text) for strlen
    parser.o(i.SCPI_ResultError) refers to parser.o(i.SCPI_ResultInt32) for SCPI_ResultInt32
    parser.o(i.SCPI_ResultError) refers to parser.o(i.writeDelimiter) for writeDelimiter
    parser.o(i.SCPI_ResultError) refers to parser.o(i.writeData) for writeData
    parser.o(i.SCPI_ResultError) refers to utils.o(i.strnpbrk) for strnpbrk
    parser.o(i.SCPI_ResultFloat) refers to utils.o(i.SCPI_FloatToStr) for SCPI_FloatToStr
    parser.o(i.SCPI_ResultFloat) refers to parser.o(i.writeDelimiter) for writeDelimiter
    parser.o(i.SCPI_ResultFloat) refers to parser.o(i.writeData) for writeData
    parser.o(i.SCPI_ResultInt32) refers to parser.o(i.resultUInt32BaseSign) for resultUInt32BaseSign
    parser.o(i.SCPI_ResultInt64) refers to parser.o(i.resultUInt64BaseSign) for resultUInt64BaseSign
    parser.o(i.SCPI_ResultText) refers to strlen.o(.text) for strlen
    parser.o(i.SCPI_ResultText) refers to parser.o(i.writeDelimiter) for writeDelimiter
    parser.o(i.SCPI_ResultText) refers to parser.o(i.writeData) for writeData
    parser.o(i.SCPI_ResultText) refers to utils.o(i.strnpbrk) for strnpbrk
    parser.o(i.SCPI_ResultUInt32Base) refers to parser.o(i.resultUInt32BaseSign) for resultUInt32BaseSign
    parser.o(i.SCPI_ResultUInt64Base) refers to parser.o(i.resultUInt64BaseSign) for resultUInt64BaseSign
    parser.o(i.processCommand) refers to parser.o(i.writeSemicolon) for writeSemicolon
    parser.o(i.processCommand) refers to error.o(i.SCPI_ErrorPush) for SCPI_ErrorPush
    parser.o(i.produceResultArrayBinary) refers to utils.o(i.SCPI_GetNativeFormat) for SCPI_GetNativeFormat
    parser.o(i.produceResultArrayBinary) refers to parser.o(i.SCPI_ResultArbitraryBlock) for SCPI_ResultArbitraryBlock
    parser.o(i.produceResultArrayBinary) refers to error.o(i.SCPI_ErrorPush) for SCPI_ErrorPush
    parser.o(i.produceResultArrayBinary) refers to parser.o(i.SCPI_ResultArbitraryBlockHeader) for SCPI_ResultArbitraryBlockHeader
    parser.o(i.produceResultArrayBinary) refers to parser.o(i.SCPI_ResultArbitraryBlockData) for SCPI_ResultArbitraryBlockData
    parser.o(i.produceResultArrayBinary) refers to utils.o(i.SCPI_Swap16) for SCPI_Swap16
    parser.o(i.produceResultArrayBinary) refers to utils.o(i.SCPI_Swap32) for SCPI_Swap32
    parser.o(i.produceResultArrayBinary) refers to utils.o(i.SCPI_Swap64) for SCPI_Swap64
    parser.o(i.resultUInt32BaseSign) refers to utils.o(i.UInt32ToStrBaseSign) for UInt32ToStrBaseSign
    parser.o(i.resultUInt32BaseSign) refers to parser.o(i.getBasePrefix) for getBasePrefix
    parser.o(i.resultUInt32BaseSign) refers to parser.o(i.writeDelimiter) for writeDelimiter
    parser.o(i.resultUInt32BaseSign) refers to parser.o(i.writeData) for writeData
    parser.o(i.resultUInt64BaseSign) refers to utils.o(i.UInt64ToStrBaseSign) for UInt64ToStrBaseSign
    parser.o(i.resultUInt64BaseSign) refers to parser.o(i.getBasePrefix) for getBasePrefix
    parser.o(i.resultUInt64BaseSign) refers to parser.o(i.writeDelimiter) for writeDelimiter
    parser.o(i.resultUInt64BaseSign) refers to parser.o(i.writeData) for writeData
    parser.o(i.scpiParser_detectProgramMessageUnit) refers to lexer.o(i.scpiLex_WhiteSpace) for scpiLex_WhiteSpace
    parser.o(i.scpiParser_detectProgramMessageUnit) refers to lexer.o(i.scpiLex_ProgramHeader) for scpiLex_ProgramHeader
    parser.o(i.scpiParser_detectProgramMessageUnit) refers to parser.o(i.scpiParser_parseAllProgramData) for scpiParser_parseAllProgramData
    parser.o(i.scpiParser_detectProgramMessageUnit) refers to parser.o(i.invalidateToken) for invalidateToken
    parser.o(i.scpiParser_detectProgramMessageUnit) refers to lexer.o(i.scpiLex_NewLine) for scpiLex_NewLine
    parser.o(i.scpiParser_detectProgramMessageUnit) refers to lexer.o(i.scpiLex_Semicolon) for scpiLex_Semicolon
    parser.o(i.scpiParser_detectProgramMessageUnit) refers to lexer.o(i.scpiLex_IsEos) for scpiLex_IsEos
    parser.o(i.scpiParser_parseAllProgramData) refers to parser.o(i.scpiParser_parseProgramData) for scpiParser_parseProgramData
    parser.o(i.scpiParser_parseAllProgramData) refers to lexer.o(i.scpiLex_Comma) for scpiLex_Comma
    parser.o(i.scpiParser_parseProgramData) refers to lexer.o(i.scpiLex_WhiteSpace) for scpiLex_WhiteSpace
    parser.o(i.scpiParser_parseProgramData) refers to lexer.o(i.scpiLex_NondecimalNumericData) for scpiLex_NondecimalNumericData
    parser.o(i.scpiParser_parseProgramData) refers to lexer.o(i.scpiLex_CharacterProgramData) for scpiLex_CharacterProgramData
    parser.o(i.scpiParser_parseProgramData) refers to lexer.o(i.scpiLex_DecimalNumericProgramData) for scpiLex_DecimalNumericProgramData
    parser.o(i.scpiParser_parseProgramData) refers to lexer.o(i.scpiLex_SuffixProgramData) for scpiLex_SuffixProgramData
    parser.o(i.scpiParser_parseProgramData) refers to lexer.o(i.scpiLex_StringProgramData) for scpiLex_StringProgramData
    parser.o(i.scpiParser_parseProgramData) refers to lexer.o(i.scpiLex_ArbitraryBlockProgramData) for scpiLex_ArbitraryBlockProgramData
    parser.o(i.scpiParser_parseProgramData) refers to lexer.o(i.scpiLex_ProgramExpression) for scpiLex_ProgramExpression
    parser.o(i.writeDelimiter) refers to parser.o(i.writeData) for writeData
    parser.o(i.writeSemicolon) refers to parser.o(i.writeData) for writeData
    parser.o(.constdata) refers to parser.o(.conststring) for .conststring
    units.o(i.SCPI_NumberToStr) refers to parser.o(i.SCPI_ChoiceToName) for SCPI_ChoiceToName
    units.o(i.SCPI_NumberToStr) refers to strncpy.o(.text) for strncpy
    units.o(i.SCPI_NumberToStr) refers to utils.o(i.BSD_strnlen) for BSD_strnlen
    units.o(i.SCPI_NumberToStr) refers to utils.o(i.SCPI_DoubleToStr) for SCPI_DoubleToStr
    units.o(i.SCPI_NumberToStr) refers to cdcmple.o(.text) for __aeabi_cdcmpeq
    units.o(i.SCPI_NumberToStr) refers to strncat.o(.text) for strncat
    units.o(i.SCPI_NumberToStr) refers to strlen.o(.text) for strlen
    units.o(i.SCPI_ParamNumber) refers to parser.o(i.SCPI_Parameter) for SCPI_Parameter
    units.o(i.SCPI_ParamNumber) refers to error.o(i.SCPI_ErrorPush) for SCPI_ErrorPush
    units.o(i.SCPI_ParamNumber) refers to parser.o(i.SCPI_ParamToDouble) for SCPI_ParamToDouble
    units.o(i.SCPI_ParamNumber) refers to lexer.o(i.scpiLex_DecimalNumericProgramData) for scpiLex_DecimalNumericProgramData
    units.o(i.SCPI_ParamNumber) refers to lexer.o(i.scpiLex_WhiteSpace) for scpiLex_WhiteSpace
    units.o(i.SCPI_ParamNumber) refers to lexer.o(i.scpiLex_SuffixProgramData) for scpiLex_SuffixProgramData
    units.o(i.SCPI_ParamNumber) refers to units.o(i.transformNumber) for transformNumber
    units.o(i.SCPI_ParamNumber) refers to lexer.o(i.scpiLex_CharacterProgramData) for scpiLex_CharacterProgramData
    units.o(i.SCPI_ParamNumber) refers to parser.o(i.SCPI_ParamToChoice) for SCPI_ParamToChoice
    units.o(i.transformNumber) refers to utils.o(i.skipWhitespace) for skipWhitespace
    units.o(i.transformNumber) refers to strlen.o(.text) for strlen
    units.o(i.transformNumber) refers to utils.o(i.compareStr) for compareStr
    units.o(i.transformNumber) refers to dmul.o(.text) for __aeabi_dmul
    units.o(i.transformNumber) refers to error.o(i.SCPI_ErrorPush) for SCPI_ErrorPush
    units.o(.constdata) refers to units.o(.conststring) for .conststring
    units.o(.constdata) refers to units.o(.conststring) for .conststring
    utils.o(i.SCPI_DoubleToStr) refers to printfa.o(i.__0snprintf) for __2snprintf
    utils.o(i.SCPI_DoubleToStr) refers to strlen.o(.text) for strlen
    utils.o(i.SCPI_FloatToStr) refers to f2d.o(.text) for __aeabi_f2d
    utils.o(i.SCPI_FloatToStr) refers to printfa.o(i.__0snprintf) for __2snprintf
    utils.o(i.SCPI_FloatToStr) refers to strlen.o(.text) for strlen
    utils.o(i.SCPI_GetNativeFormat) refers to utils.o(.constdata) for .constdata
    utils.o(i.SCPI_Int32ToStr) refers to utils.o(i.UInt32ToStrBaseSign) for UInt32ToStrBaseSign
    utils.o(i.SCPI_Int64ToStr) refers to utils.o(i.UInt64ToStrBaseSign) for UInt64ToStrBaseSign
    utils.o(i.SCPI_UInt32ToStrBase) refers to utils.o(i.UInt32ToStrBaseSign) for UInt32ToStrBaseSign
    utils.o(i.SCPI_UInt64ToStrBase) refers to utils.o(i.UInt64ToStrBaseSign) for UInt64ToStrBaseSign
    utils.o(i.SCPI_dtostre) refers to utils.o(i.__ARM_isnan) for __ARM_isnan
    utils.o(i.SCPI_dtostre) refers to utils.o(i.scpi_ecvt) for scpi_ecvt
    utils.o(i.SCPI_dtostre) refers to memmovea.o(.text) for __aeabi_memmove
    utils.o(i.SCPI_dtostre) refers to strcpy.o(.text) for strcpy
    utils.o(i.SCPI_dtostre) refers to strncpy.o(.text) for strncpy
    utils.o(i.SCPI_dtostre) refers to memseta.o(.text) for __aeabi_memset
    utils.o(i.SCPI_dtostre) refers to utils.o(i.UInt32ToStrBaseSign) for UInt32ToStrBaseSign
    utils.o(i.UInt32ToStrBaseSign) refers to memmovea.o(.text) for __aeabi_memcpy4
    utils.o(i.UInt64ToStrBaseSign) refers to memmovea.o(.text) for __aeabi_memcpy4
    utils.o(i.UInt64ToStrBaseSign) refers to uldiv.o(.text) for __aeabi_uldivmod
    utils.o(i.compareStr) refers to strncasecmp.o(.text) for strncasecmp
    utils.o(i.compareStrAndNum) refers to strncasecmp.o(.text) for strncasecmp
    utils.o(i.compareStrAndNum) refers to utils.o(i.strBaseToInt32) for strBaseToInt32
    utils.o(i.compareStrAndNum) refers to ctype_o.o(.text) for __rt_ctype_table
    utils.o(i.composeCompoundCommand) refers to memmovea.o(.text) for __aeabi_memmove
    utils.o(i.matchCommand) refers to strlen.o(.text) for strlen
    utils.o(i.matchCommand) refers to utils.o(i.BSD_strnlen) for BSD_strnlen
    utils.o(i.matchCommand) refers to utils.o(i.patternSeparatorPos) for patternSeparatorPos
    utils.o(i.matchCommand) refers to utils.o(i.strnpbrk) for strnpbrk
    utils.o(i.matchCommand) refers to utils.o(i.matchPattern) for matchPattern
    utils.o(i.matchPattern) refers to utils.o(i.patternSeparatorShortPos) for patternSeparatorShortPos
    utils.o(i.matchPattern) refers to utils.o(i.compareStr) for compareStr
    utils.o(i.matchPattern) refers to utils.o(i.compareStrAndNum) for compareStrAndNum
    utils.o(i.patternSeparatorPos) refers to utils.o(i.strnpbrk) for strnpbrk
    utils.o(i.patternSeparatorShortPos) refers to ctype_o.o(.text) for __rt_ctype_table
    utils.o(i.scpi_ecvt) refers to cdcmple.o(.text) for __aeabi_cdcmple
    utils.o(i.scpi_ecvt) refers to frexp.o(i.frexp) for frexp
    utils.o(i.scpi_ecvt) refers to modf.o(i.modf) for modf
    utils.o(i.scpi_ecvt) refers to ddiv.o(.text) for __aeabi_ddiv
    utils.o(i.scpi_ecvt) refers to dadd.o(.text) for __aeabi_dadd
    utils.o(i.scpi_ecvt) refers to dmul.o(.text) for __aeabi_dmul
    utils.o(i.scpi_ecvt) refers to dfixi.o(.text) for __aeabi_d2iz
    utils.o(i.scpi_ecvt) refers to cdrcmple.o(.text) for __aeabi_cdrcmple
    utils.o(i.skipWhitespace) refers to ctype_o.o(.text) for __rt_ctype_table
    utils.o(i.strBaseToInt32) refers to strtol.o(.text) for strtol
    utils.o(i.strBaseToInt64) refers to strtoll.o(.text) for strtoll
    utils.o(i.strBaseToUInt32) refers to strtoul.o(.text) for strtoul
    utils.o(i.strBaseToUInt64) refers to strtoull.o(.text) for strtoull
    utils.o(i.strToDouble) refers to strtod.o(i.strtod) for strtod
    utils.o(i.strToFloat) refers to strtof.o(i.strtof) for strtof
    frexp.o(i.__softfp_frexp) refers (Special) to iusefp.o(.text) for __I$use$fp
    frexp.o(i.__softfp_frexp) refers to dscalb.o(.text) for __ARM_scalbn
    frexp.o(i.frexp) refers (Special) to iusefp.o(.text) for __I$use$fp
    frexp.o(i.frexp) refers to dscalb.o(.text) for __ARM_scalbn
    modf.o(i.__softfp_modf) refers (Special) to iusefp.o(.text) for __I$use$fp
    modf.o(i.__softfp_modf) refers to modf.o(i.modf) for modf
    modf.o(i.modf) refers (Special) to iusefp.o(.text) for __I$use$fp
    modf.o(i.modf) refers to dadd.o(.text) for __aeabi_dsub
    strtod.o(i.__softfp_strtod) refers (Special) to iusefp.o(.text) for __I$use$fp
    strtod.o(i.__softfp_strtod) refers to strtod.o(.text) for __strtod_int
    strtod.o(i.strtod) refers (Special) to iusefp.o(.text) for __I$use$fp
    strtod.o(i.strtod) refers to strtod.o(.text) for __strtod_int
    strtof.o(i.__softfp_strtof) refers (Special) to iusefp.o(.text) for __I$use$fp
    strtof.o(i.__softfp_strtof) refers to strtof.o(.text) for __strtof_int
    strtof.o(i.strtof) refers (Special) to iusefp.o(.text) for __I$use$fp
    strtof.o(i.strtof) refers to strtof.o(.text) for __strtof_int
    entry.o(.ARM.Collect$$$$00000000) refers (Special) to entry10a.o(.ARM.Collect$$$$0000000D) for __rt_final_cpp
    entry.o(.ARM.Collect$$$$00000000) refers (Special) to entry11a.o(.ARM.Collect$$$$0000000F) for __rt_final_exit
    entry.o(.ARM.Collect$$$$00000000) refers (Special) to entry7b.o(.ARM.Collect$$$$00000008) for _main_clock
    entry.o(.ARM.Collect$$$$00000000) refers (Special) to entry8b.o(.ARM.Collect$$$$0000000A) for _main_cpp_init
    entry.o(.ARM.Collect$$$$00000000) refers (Special) to entry9a.o(.ARM.Collect$$$$0000000B) for _main_init
    entry.o(.ARM.Collect$$$$00000000) refers (Special) to entry5.o(.ARM.Collect$$$$00000004) for _main_scatterload
    entry.o(.ARM.Collect$$$$00000000) refers (Special) to entry2.o(.ARM.Collect$$$$00000001) for _main_stk
    uldiv.o(.text) refers to llushr.o(.text) for __aeabi_llsr
    uldiv.o(.text) refers to llshl.o(.text) for __aeabi_llsl
    ctype_o.o(.text) refers to ctype_o.o(.constdata) for .constdata
    ctype_o.o(.constdata) refers to ctype_o.o(.constdata) for __ctype_table
    isalnum_o.o(.text) refers to ctype_o.o(.text) for __rt_ctype_table
    isalpha_o.o(.text) refers to ctype_o.o(.text) for __rt_ctype_table
    isblank_o.o(.text) refers to ctype_o.o(.constdata) for __ctype_table
    iscntrl_o.o(.text) refers to ctype_o.o(.text) for __rt_ctype_table
    isdigit_o.o(.text) refers to ctype_o.o(.text) for __rt_ctype_table
    isgraph_o.o(.text) refers to ctype_o.o(.text) for __rt_ctype_table
    islower_o.o(.text) refers to ctype_o.o(.text) for __rt_ctype_table
    isprint_o.o(.text) refers to ctype_o.o(.text) for __rt_ctype_table
    ispunct_o.o(.text) refers to ctype_o.o(.text) for __rt_ctype_table
    isspace_o.o(.text) refers to ctype_o.o(.text) for __rt_ctype_table
    isupper_o.o(.text) refers to ctype_o.o(.text) for __rt_ctype_table
    isxdigit_o.o(.text) refers to ctype_o.o(.text) for __rt_ctype_table
    strncasecmp.o(.text) refers to tolower.o(.text) for tolower
    printfb.o(i.__0fprintf$bare) refers to printfb.o(i._printf_core) for _printf_core
    printfb.o(i.__0fprintf$bare) refers to usart.o(i.fputc) for fputc
    printfb.o(i.__0printf$bare) refers to printfb.o(i._printf_core) for _printf_core
    printfb.o(i.__0printf$bare) refers to usart.o(i.fputc) for fputc
    printfb.o(i.__0printf$bare) refers to usart.o(.data) for __stdout
    printfb.o(i.__0snprintf$bare) refers to printfb.o(i._printf_core) for _printf_core
    printfb.o(i.__0snprintf$bare) refers to printfb.o(i._snputc) for _snputc
    printfb.o(i.__0sprintf$bare) refers to printfb.o(i._printf_core) for _printf_core
    printfb.o(i.__0sprintf$bare) refers to printfb.o(i._sputc) for _sputc
    printfb.o(i.__0vfprintf$bare) refers to printfb.o(i._printf_core) for _printf_core
    printfb.o(i.__0vfprintf$bare) refers to usart.o(i.fputc) for fputc
    printfb.o(i.__0vprintf$bare) refers to printfb.o(i._printf_core) for _printf_core
    printfb.o(i.__0vprintf$bare) refers to usart.o(i.fputc) for fputc
    printfb.o(i.__0vprintf$bare) refers to usart.o(.data) for __stdout
    printfb.o(i.__0vsnprintf$bare) refers to printfb.o(i._printf_core) for _printf_core
    printfb.o(i.__0vsnprintf$bare) refers to printfb.o(i._snputc) for _snputc
    printfb.o(i.__0vsprintf$bare) refers to printfb.o(i._printf_core) for _printf_core
    printfb.o(i.__0vsprintf$bare) refers to printfb.o(i._sputc) for _sputc
    printf0.o(i.__0fprintf$0) refers to printf0.o(i._printf_core) for _printf_core
    printf0.o(i.__0fprintf$0) refers to usart.o(i.fputc) for fputc
    printf0.o(i.__0printf$0) refers to printf0.o(i._printf_core) for _printf_core
    printf0.o(i.__0printf$0) refers to usart.o(i.fputc) for fputc
    printf0.o(i.__0printf$0) refers to usart.o(.data) for __stdout
    printf0.o(i.__0snprintf$0) refers to printf0.o(i._printf_core) for _printf_core
    printf0.o(i.__0snprintf$0) refers to printf0.o(i._snputc) for _snputc
    printf0.o(i.__0sprintf$0) refers to printf0.o(i._printf_core) for _printf_core
    printf0.o(i.__0sprintf$0) refers to printf0.o(i._sputc) for _sputc
    printf0.o(i.__0vfprintf$0) refers to printf0.o(i._printf_core) for _printf_core
    printf0.o(i.__0vfprintf$0) refers to usart.o(i.fputc) for fputc
    printf0.o(i.__0vprintf$0) refers to printf0.o(i._printf_core) for _printf_core
    printf0.o(i.__0vprintf$0) refers to usart.o(i.fputc) for fputc
    printf0.o(i.__0vprintf$0) refers to usart.o(.data) for __stdout
    printf0.o(i.__0vsnprintf$0) refers to printf0.o(i._printf_core) for _printf_core
    printf0.o(i.__0vsnprintf$0) refers to printf0.o(i._snputc) for _snputc
    printf0.o(i.__0vsprintf$0) refers to printf0.o(i._printf_core) for _printf_core
    printf0.o(i.__0vsprintf$0) refers to printf0.o(i._sputc) for _sputc
    printf1.o(i.__0fprintf$1) refers to printf1.o(i._printf_core) for _printf_core
    printf1.o(i.__0fprintf$1) refers to usart.o(i.fputc) for fputc
    printf1.o(i.__0printf$1) refers to printf1.o(i._printf_core) for _printf_core
    printf1.o(i.__0printf$1) refers to usart.o(i.fputc) for fputc
    printf1.o(i.__0printf$1) refers to usart.o(.data) for __stdout
    printf1.o(i.__0snprintf$1) refers to printf1.o(i._printf_core) for _printf_core
    printf1.o(i.__0snprintf$1) refers to printf1.o(i._snputc) for _snputc
    printf1.o(i.__0sprintf$1) refers to printf1.o(i._printf_core) for _printf_core
    printf1.o(i.__0sprintf$1) refers to printf1.o(i._sputc) for _sputc
    printf1.o(i.__0vfprintf$1) refers to printf1.o(i._printf_core) for _printf_core
    printf1.o(i.__0vfprintf$1) refers to usart.o(i.fputc) for fputc
    printf1.o(i.__0vprintf$1) refers to printf1.o(i._printf_core) for _printf_core
    printf1.o(i.__0vprintf$1) refers to usart.o(i.fputc) for fputc
    printf1.o(i.__0vprintf$1) refers to usart.o(.data) for __stdout
    printf1.o(i.__0vsnprintf$1) refers to printf1.o(i._printf_core) for _printf_core
    printf1.o(i.__0vsnprintf$1) refers to printf1.o(i._snputc) for _snputc
    printf1.o(i.__0vsprintf$1) refers to printf1.o(i._printf_core) for _printf_core
    printf1.o(i.__0vsprintf$1) refers to printf1.o(i._sputc) for _sputc
    printf1.o(i._printf_core) refers to uidiv.o(.text) for __aeabi_uidivmod
    printf2.o(i.__0fprintf$2) refers to printf2.o(i._printf_core) for _printf_core
    printf2.o(i.__0fprintf$2) refers to usart.o(i.fputc) for fputc
    printf2.o(i.__0printf$2) refers to printf2.o(i._printf_core) for _printf_core
    printf2.o(i.__0printf$2) refers to usart.o(i.fputc) for fputc
    printf2.o(i.__0printf$2) refers to usart.o(.data) for __stdout
    printf2.o(i.__0snprintf$2) refers to printf2.o(i._printf_core) for _printf_core
    printf2.o(i.__0snprintf$2) refers to printf2.o(i._snputc) for _snputc
    printf2.o(i.__0sprintf$2) refers to printf2.o(i._printf_core) for _printf_core
    printf2.o(i.__0sprintf$2) refers to printf2.o(i._sputc) for _sputc
    printf2.o(i.__0vfprintf$2) refers to printf2.o(i._printf_core) for _printf_core
    printf2.o(i.__0vfprintf$2) refers to usart.o(i.fputc) for fputc
    printf2.o(i.__0vprintf$2) refers to printf2.o(i._printf_core) for _printf_core
    printf2.o(i.__0vprintf$2) refers to usart.o(i.fputc) for fputc
    printf2.o(i.__0vprintf$2) refers to usart.o(.data) for __stdout
    printf2.o(i.__0vsnprintf$2) refers to printf2.o(i._printf_core) for _printf_core
    printf2.o(i.__0vsnprintf$2) refers to printf2.o(i._snputc) for _snputc
    printf2.o(i.__0vsprintf$2) refers to printf2.o(i._printf_core) for _printf_core
    printf2.o(i.__0vsprintf$2) refers to printf2.o(i._sputc) for _sputc
    printf3.o(i.__0fprintf$3) refers to printf3.o(i._printf_core) for _printf_core
    printf3.o(i.__0fprintf$3) refers to usart.o(i.fputc) for fputc
    printf3.o(i.__0printf$3) refers to printf3.o(i._printf_core) for _printf_core
    printf3.o(i.__0printf$3) refers to usart.o(i.fputc) for fputc
    printf3.o(i.__0printf$3) refers to usart.o(.data) for __stdout
    printf3.o(i.__0snprintf$3) refers to printf3.o(i._printf_core) for _printf_core
    printf3.o(i.__0snprintf$3) refers to printf3.o(i._snputc) for _snputc
    printf3.o(i.__0sprintf$3) refers to printf3.o(i._printf_core) for _printf_core
    printf3.o(i.__0sprintf$3) refers to printf3.o(i._sputc) for _sputc
    printf3.o(i.__0vfprintf$3) refers to printf3.o(i._printf_core) for _printf_core
    printf3.o(i.__0vfprintf$3) refers to usart.o(i.fputc) for fputc
    printf3.o(i.__0vprintf$3) refers to printf3.o(i._printf_core) for _printf_core
    printf3.o(i.__0vprintf$3) refers to usart.o(i.fputc) for fputc
    printf3.o(i.__0vprintf$3) refers to usart.o(.data) for __stdout
    printf3.o(i.__0vsnprintf$3) refers to printf3.o(i._printf_core) for _printf_core
    printf3.o(i.__0vsnprintf$3) refers to printf3.o(i._snputc) for _snputc
    printf3.o(i.__0vsprintf$3) refers to printf3.o(i._printf_core) for _printf_core
    printf3.o(i.__0vsprintf$3) refers to printf3.o(i._sputc) for _sputc
    printf3.o(i._printf_core) refers to uidiv.o(.text) for __aeabi_uidivmod
    printf4.o(i.__0fprintf$4) refers to printf4.o(i._printf_core) for _printf_core
    printf4.o(i.__0fprintf$4) refers to usart.o(i.fputc) for fputc
    printf4.o(i.__0printf$4) refers to printf4.o(i._printf_core) for _printf_core
    printf4.o(i.__0printf$4) refers to usart.o(i.fputc) for fputc
    printf4.o(i.__0printf$4) refers to usart.o(.data) for __stdout
    printf4.o(i.__0snprintf$4) refers to printf4.o(i._printf_core) for _printf_core
    printf4.o(i.__0snprintf$4) refers to printf4.o(i._snputc) for _snputc
    printf4.o(i.__0sprintf$4) refers to printf4.o(i._printf_core) for _printf_core
    printf4.o(i.__0sprintf$4) refers to printf4.o(i._sputc) for _sputc
    printf4.o(i.__0vfprintf$4) refers to printf4.o(i._printf_core) for _printf_core
    printf4.o(i.__0vfprintf$4) refers to usart.o(i.fputc) for fputc
    printf4.o(i.__0vprintf$4) refers to printf4.o(i._printf_core) for _printf_core
    printf4.o(i.__0vprintf$4) refers to usart.o(i.fputc) for fputc
    printf4.o(i.__0vprintf$4) refers to usart.o(.data) for __stdout
    printf4.o(i.__0vsnprintf$4) refers to printf4.o(i._printf_core) for _printf_core
    printf4.o(i.__0vsnprintf$4) refers to printf4.o(i._snputc) for _snputc
    printf4.o(i.__0vsprintf$4) refers to printf4.o(i._printf_core) for _printf_core
    printf4.o(i.__0vsprintf$4) refers to printf4.o(i._sputc) for _sputc
    printf4.o(i._printf_core) refers to uldiv.o(.text) for __aeabi_uldivmod
    printf5.o(i.__0fprintf$5) refers to printf5.o(i._printf_core) for _printf_core
    printf5.o(i.__0fprintf$5) refers to usart.o(i.fputc) for fputc
    printf5.o(i.__0printf$5) refers to printf5.o(i._printf_core) for _printf_core
    printf5.o(i.__0printf$5) refers to usart.o(i.fputc) for fputc
    printf5.o(i.__0printf$5) refers to usart.o(.data) for __stdout
    printf5.o(i.__0snprintf$5) refers to printf5.o(i._printf_core) for _printf_core
    printf5.o(i.__0snprintf$5) refers to printf5.o(i._snputc) for _snputc
    printf5.o(i.__0sprintf$5) refers to printf5.o(i._printf_core) for _printf_core
    printf5.o(i.__0sprintf$5) refers to printf5.o(i._sputc) for _sputc
    printf5.o(i.__0vfprintf$5) refers to printf5.o(i._printf_core) for _printf_core
    printf5.o(i.__0vfprintf$5) refers to usart.o(i.fputc) for fputc
    printf5.o(i.__0vprintf$5) refers to printf5.o(i._printf_core) for _printf_core
    printf5.o(i.__0vprintf$5) refers to usart.o(i.fputc) for fputc
    printf5.o(i.__0vprintf$5) refers to usart.o(.data) for __stdout
    printf5.o(i.__0vsnprintf$5) refers to printf5.o(i._printf_core) for _printf_core
    printf5.o(i.__0vsnprintf$5) refers to printf5.o(i._snputc) for _snputc
    printf5.o(i.__0vsprintf$5) refers to printf5.o(i._printf_core) for _printf_core
    printf5.o(i.__0vsprintf$5) refers to printf5.o(i._sputc) for _sputc
    printf5.o(i._printf_core) refers to uldiv.o(.text) for __aeabi_uldivmod
    printf6.o(i.__0fprintf$6) refers to printf6.o(i._printf_core) for _printf_core
    printf6.o(i.__0fprintf$6) refers to usart.o(i.fputc) for fputc
    printf6.o(i.__0printf$6) refers to printf6.o(i._printf_core) for _printf_core
    printf6.o(i.__0printf$6) refers to usart.o(i.fputc) for fputc
    printf6.o(i.__0printf$6) refers to usart.o(.data) for __stdout
    printf6.o(i.__0snprintf$6) refers to printf6.o(i._printf_core) for _printf_core
    printf6.o(i.__0snprintf$6) refers to printf6.o(i._snputc) for _snputc
    printf6.o(i.__0sprintf$6) refers to printf6.o(i._printf_core) for _printf_core
    printf6.o(i.__0sprintf$6) refers to printf6.o(i._sputc) for _sputc
    printf6.o(i.__0vfprintf$6) refers to printf6.o(i._printf_core) for _printf_core
    printf6.o(i.__0vfprintf$6) refers to usart.o(i.fputc) for fputc
    printf6.o(i.__0vprintf$6) refers to printf6.o(i._printf_core) for _printf_core
    printf6.o(i.__0vprintf$6) refers to usart.o(i.fputc) for fputc
    printf6.o(i.__0vprintf$6) refers to usart.o(.data) for __stdout
    printf6.o(i.__0vsnprintf$6) refers to printf6.o(i._printf_core) for _printf_core
    printf6.o(i.__0vsnprintf$6) refers to printf6.o(i._snputc) for _snputc
    printf6.o(i.__0vsprintf$6) refers to printf6.o(i._printf_core) for _printf_core
    printf6.o(i.__0vsprintf$6) refers to printf6.o(i._sputc) for _sputc
    printf6.o(i._printf_core) refers to printf6.o(i._printf_pre_padding) for _printf_pre_padding
    printf6.o(i._printf_core) refers to uidiv.o(.text) for __aeabi_uidivmod
    printf6.o(i._printf_core) refers to printf6.o(i._printf_post_padding) for _printf_post_padding
    printf7.o(i.__0fprintf$7) refers to printf7.o(i._printf_core) for _printf_core
    printf7.o(i.__0fprintf$7) refers to usart.o(i.fputc) for fputc
    printf7.o(i.__0printf$7) refers to printf7.o(i._printf_core) for _printf_core
    printf7.o(i.__0printf$7) refers to usart.o(i.fputc) for fputc
    printf7.o(i.__0printf$7) refers to usart.o(.data) for __stdout
    printf7.o(i.__0snprintf$7) refers to printf7.o(i._printf_core) for _printf_core
    printf7.o(i.__0snprintf$7) refers to printf7.o(i._snputc) for _snputc
    printf7.o(i.__0sprintf$7) refers to printf7.o(i._printf_core) for _printf_core
    printf7.o(i.__0sprintf$7) refers to printf7.o(i._sputc) for _sputc
    printf7.o(i.__0vfprintf$7) refers to printf7.o(i._printf_core) for _printf_core
    printf7.o(i.__0vfprintf$7) refers to usart.o(i.fputc) for fputc
    printf7.o(i.__0vprintf$7) refers to printf7.o(i._printf_core) for _printf_core
    printf7.o(i.__0vprintf$7) refers to usart.o(i.fputc) for fputc
    printf7.o(i.__0vprintf$7) refers to usart.o(.data) for __stdout
    printf7.o(i.__0vsnprintf$7) refers to printf7.o(i._printf_core) for _printf_core
    printf7.o(i.__0vsnprintf$7) refers to printf7.o(i._snputc) for _snputc
    printf7.o(i.__0vsprintf$7) refers to printf7.o(i._printf_core) for _printf_core
    printf7.o(i.__0vsprintf$7) refers to printf7.o(i._sputc) for _sputc
    printf7.o(i._printf_core) refers to printf7.o(i._printf_pre_padding) for _printf_pre_padding
    printf7.o(i._printf_core) refers to uldiv.o(.text) for __aeabi_uldivmod
    printf7.o(i._printf_core) refers to printf7.o(i._printf_post_padding) for _printf_post_padding
    printf8.o(i.__0fprintf$8) refers to printf8.o(i._printf_core) for _printf_core
    printf8.o(i.__0fprintf$8) refers to usart.o(i.fputc) for fputc
    printf8.o(i.__0printf$8) refers to printf8.o(i._printf_core) for _printf_core
    printf8.o(i.__0printf$8) refers to usart.o(i.fputc) for fputc
    printf8.o(i.__0printf$8) refers to usart.o(.data) for __stdout
    printf8.o(i.__0snprintf$8) refers to printf8.o(i._printf_core) for _printf_core
    printf8.o(i.__0snprintf$8) refers to printf8.o(i._snputc) for _snputc
    printf8.o(i.__0sprintf$8) refers to printf8.o(i._printf_core) for _printf_core
    printf8.o(i.__0sprintf$8) refers to printf8.o(i._sputc) for _sputc
    printf8.o(i.__0vfprintf$8) refers to printf8.o(i._printf_core) for _printf_core
    printf8.o(i.__0vfprintf$8) refers to usart.o(i.fputc) for fputc
    printf8.o(i.__0vprintf$8) refers to printf8.o(i._printf_core) for _printf_core
    printf8.o(i.__0vprintf$8) refers to usart.o(i.fputc) for fputc
    printf8.o(i.__0vprintf$8) refers to usart.o(.data) for __stdout
    printf8.o(i.__0vsnprintf$8) refers to printf8.o(i._printf_core) for _printf_core
    printf8.o(i.__0vsnprintf$8) refers to printf8.o(i._snputc) for _snputc
    printf8.o(i.__0vsprintf$8) refers to printf8.o(i._printf_core) for _printf_core
    printf8.o(i.__0vsprintf$8) refers to printf8.o(i._sputc) for _sputc
    printf8.o(i._printf_core) refers to printf8.o(i._printf_pre_padding) for _printf_pre_padding
    printf8.o(i._printf_core) refers to uldiv.o(.text) for __aeabi_uldivmod
    printf8.o(i._printf_core) refers to printf8.o(i._printf_post_padding) for _printf_post_padding
    printfa.o(i.__0fprintf) refers (Special) to iusefp.o(.text) for __I$use$fp
    printfa.o(i.__0fprintf) refers to printfa.o(i._printf_core) for _printf_core
    printfa.o(i.__0fprintf) refers to usart.o(i.fputc) for fputc
    printfa.o(i.__0printf) refers (Special) to iusefp.o(.text) for __I$use$fp
    printfa.o(i.__0printf) refers to printfa.o(i._printf_core) for _printf_core
    printfa.o(i.__0printf) refers to usart.o(i.fputc) for fputc
    printfa.o(i.__0printf) refers to usart.o(.data) for __stdout
    printfa.o(i.__0snprintf) refers (Special) to iusefp.o(.text) for __I$use$fp
    printfa.o(i.__0snprintf) refers to printfa.o(i._printf_core) for _printf_core
    printfa.o(i.__0snprintf) refers to printfa.o(i._snputc) for _snputc
    printfa.o(i.__0sprintf) refers (Special) to iusefp.o(.text) for __I$use$fp
    printfa.o(i.__0sprintf) refers to printfa.o(i._printf_core) for _printf_core
    printfa.o(i.__0sprintf) refers to printfa.o(i._sputc) for _sputc
    printfa.o(i.__0vfprintf) refers (Special) to iusefp.o(.text) for __I$use$fp
    printfa.o(i.__0vfprintf) refers to printfa.o(i._printf_core) for _printf_core
    printfa.o(i.__0vfprintf) refers to usart.o(i.fputc) for fputc
    printfa.o(i.__0vprintf) refers (Special) to iusefp.o(.text) for __I$use$fp
    printfa.o(i.__0vprintf) refers to printfa.o(i._printf_core) for _printf_core
    printfa.o(i.__0vprintf) refers to usart.o(i.fputc) for fputc
    printfa.o(i.__0vprintf) refers to usart.o(.data) for __stdout
    printfa.o(i.__0vsnprintf) refers (Special) to iusefp.o(.text) for __I$use$fp
    printfa.o(i.__0vsnprintf) refers to printfa.o(i._printf_core) for _printf_core
    printfa.o(i.__0vsnprintf) refers to printfa.o(i._snputc) for _snputc
    printfa.o(i.__0vsprintf) refers (Special) to iusefp.o(.text) for __I$use$fp
    printfa.o(i.__0vsprintf) refers to printfa.o(i._printf_core) for _printf_core
    printfa.o(i.__0vsprintf) refers to printfa.o(i._sputc) for _sputc
    printfa.o(i._fp_digits) refers (Special) to iusefp.o(.text) for __I$use$fp
    printfa.o(i._fp_digits) refers to dmul.o(.text) for __aeabi_dmul
    printfa.o(i._fp_digits) refers to ddiv.o(.text) for __aeabi_ddiv
    printfa.o(i._fp_digits) refers to cdrcmple.o(.text) for __aeabi_cdrcmple
    printfa.o(i._fp_digits) refers to dadd.o(.text) for __aeabi_dadd
    printfa.o(i._fp_digits) refers to dfixul.o(.text) for __aeabi_d2ulz
    printfa.o(i._fp_digits) refers to uldiv.o(.text) for __aeabi_uldivmod
    printfa.o(i._printf_core) refers (Special) to iusefp.o(.text) for __I$use$fp
    printfa.o(i._printf_core) refers to printfa.o(i._printf_pre_padding) for _printf_pre_padding
    printfa.o(i._printf_core) refers to uldiv.o(.text) for __aeabi_uldivmod
    printfa.o(i._printf_core) refers to printfa.o(i._printf_post_padding) for _printf_post_padding
    printfa.o(i._printf_core) refers to printfa.o(i._fp_digits) for _fp_digits
    printfa.o(i._printf_core) refers to uidiv.o(.text) for __aeabi_uidivmod
    printfa.o(i._printf_post_padding) refers (Special) to iusefp.o(.text) for __I$use$fp
    printfa.o(i._printf_pre_padding) refers (Special) to iusefp.o(.text) for __I$use$fp
    printfa.o(i._snputc) refers (Special) to iusefp.o(.text) for __I$use$fp
    printfa.o(i._sputc) refers (Special) to iusefp.o(.text) for __I$use$fp
    strtol.o(.text) refers to ctype_o.o(.text) for __rt_ctype_table
    strtol.o(.text) refers to _strtoul.o(.text) for _strtoul
    strtol.o(.text) refers to errno.o(i.__aeabi_errno_addr) for __aeabi_errno_addr
    strtoul.o(.text) refers to errno.o(i.__aeabi_errno_addr) for __aeabi_errno_addr
    strtoul.o(.text) refers to ctype_o.o(.text) for __rt_ctype_table
    strtoul.o(.text) refers to _strtoul.o(.text) for _strtoul
    strtoll.o(.text) refers to __strtoll.o(.text) for __strtoll
    strtoull.o(.text) refers to __strtoull.o(.text) for __strtoull
    fadd.o(.text) refers (Special) to iusefp.o(.text) for __I$use$fp
    fadd.o(.text) refers to fepilogue.o(.text) for _float_epilogue
    fmul.o(.text) refers (Special) to iusefp.o(.text) for __I$use$fp
    fdiv.o(.text) refers (Special) to iusefp.o(.text) for __I$use$fp
    fdiv.o(.text) refers to fepilogue.o(.text) for _float_round
    dadd.o(.text) refers (Special) to iusefp.o(.text) for __I$use$fp
    dadd.o(.text) refers to llshl.o(.text) for __aeabi_llsl
    dadd.o(.text) refers to llsshr.o(.text) for __aeabi_lasr
    dadd.o(.text) refers to depilogue.o(.text) for _double_epilogue
    dmul.o(.text) refers (Special) to iusefp.o(.text) for __I$use$fp
    dmul.o(.text) refers to depilogue.o(.text) for _double_epilogue
    ddiv.o(.text) refers (Special) to iusefp.o(.text) for __I$use$fp
    ddiv.o(.text) refers to depilogue.o(.text) for _double_round
    ffltui.o(.text) refers (Special) to iusefp.o(.text) for __I$use$fp
    ffltui.o(.text) refers to fepilogue.o(.text) for _float_epilogue
    dfltul.o(.text) refers (Special) to iusefp.o(.text) for __I$use$fp
    dfltul.o(.text) refers to depilogue.o(.text) for _double_epilogue
    ffixui.o(.text) refers (Special) to iusefp.o(.text) for __I$use$fp
    dfixi.o(.text) refers (Special) to iusefp.o(.text) for __I$use$fp
    dfixi.o(.text) refers to llushr.o(.text) for __aeabi_llsr
    f2d.o(.text) refers (Special) to iusefp.o(.text) for __I$use$fp
    cdcmple.o(.text) refers (Special) to iusefp.o(.text) for __I$use$fp
    cdrcmple.o(.text) refers (Special) to iusefp.o(.text) for __I$use$fp
    cfrcmple.o(.text) refers (Special) to iusefp.o(.text) for __I$use$fp
    entry2.o(.ARM.Collect$$$$00000001) refers to entry2.o(.ARM.Collect$$$$00002712) for __lit__00000000
    entry2.o(.ARM.Collect$$$$00002712) refers to startup_stm32f10x_hd.o(STACK) for __initial_sp
    entry2.o(__vectab_stack_and_reset_area) refers to startup_stm32f10x_hd.o(STACK) for __initial_sp
    entry2.o(__vectab_stack_and_reset_area) refers to entry.o(.ARM.Collect$$$$00000000) for __main
    entry5.o(.ARM.Collect$$$$00000004) refers to init.o(.text) for __scatterload
    entry9a.o(.ARM.Collect$$$$0000000B) refers to main.o(i.main) for main
    entry9b.o(.ARM.Collect$$$$0000000C) refers to main.o(i.main) for main
    errno.o(i.__aeabi_errno_addr) refers to errno.o(.data) for .data
    errno.o(i.__read_errno) refers to errno.o(.data) for .data
    errno.o(i.__set_errno) refers to errno.o(.data) for .data
    _strtoul.o(.text) refers to _chval.o(.text) for _chval
    _strtoul.o(.text) refers to errno.o(i.__aeabi_errno_addr) for __aeabi_errno_addr
    strtod.o(.text) refers to scanf_fp.o(.text) for _scanf_real
    strtod.o(.text) refers to _sgetc.o(.text) for _sgetc
    strtod.o(.text) refers to isspace_o.o(.text) for isspace
    strtof.o(.text) refers to strtod.o(.text) for __strtod_int
    strtof.o(.text) refers to narrow.o(i.__mathlib_narrow) for __mathlib_narrow
    __strtoll.o(.text) refers to ctype_o.o(.text) for __rt_ctype_table
    __strtoll.o(.text) refers to _strtoull.o(.text) for _strtoull
    __strtoll.o(.text) refers to errno.o(i.__aeabi_errno_addr) for __aeabi_errno_addr
    __strtoull.o(.text) refers to errno.o(i.__aeabi_errno_addr) for __aeabi_errno_addr
    __strtoull.o(.text) refers to ctype_o.o(.text) for __rt_ctype_table
    __strtoull.o(.text) refers to _strtoull.o(.text) for _strtoull
    depilogue.o(.text) refers to llshl.o(.text) for __aeabi_llsl
    depilogue.o(.text) refers to llushr.o(.text) for __aeabi_llsr
    dfixul.o(.text) refers to llushr.o(.text) for __aeabi_llsr
    dfixul.o(.text) refers to llshl.o(.text) for __aeabi_llsl
    narrow.o(i.__mathlib_narrow) refers (Special) to iusefp.o(.text) for __I$use$fp
    narrow.o(i.__mathlib_narrow) refers to narrow.o(i.__mathlib_tofloat) for __mathlib_tofloat
    narrow.o(i.__mathlib_tofloat) refers (Special) to iusefp.o(.text) for __I$use$fp
    narrow.o(i.__mathlib_tofloat) refers to frexp.o(i.frexp) for frexp
    narrow.o(i.__mathlib_tofloat) refers to cdcmple.o(.text) for __aeabi_cdcmpeq
    narrow.o(i.__mathlib_tofloat) refers to fpstat.o(.text) for __ieee_status
    narrow.o(i.__mathlib_tofloat) refers to d2f.o(.text) for __aeabi_d2f
    narrow.o(i.__mathlib_tofloat) refers to errno.o(i.__set_errno) for __set_errno
    narrow.o(i.__mathlib_tofloat) refers to cdrcmple.o(.text) for __aeabi_cdrcmple
    narrow.o(i.__softfp___mathlib_tofloat) refers (Special) to iusefp.o(.text) for __I$use$fp
    narrow.o(i.__softfp___mathlib_tofloat) refers to narrow.o(i.__mathlib_tofloat) for __mathlib_tofloat
    init.o(.text) refers to entry5.o(.ARM.Collect$$$$00000004) for __main_after_scatterload
    isspace_c.o(.text) refers to ctype_c.o(.text) for __ctype_lookup
    scanf_fp.o(.text) refers (Special) to iusefp.o(.text) for __I$use$fp
    scanf_fp.o(.text) refers to dfltul.o(.text) for __aeabi_ul2d
    scanf_fp.o(.text) refers to dmul.o(.text) for __aeabi_dmul
    scanf_fp.o(.text) refers to ddiv.o(.text) for __aeabi_ddiv
    scanf_fp.o(.text) refers to scanf_fp.o(i._is_digit) for _is_digit
    scanf_fp.o(.text) refers to d2f.o(.text) for __aeabi_d2f
    _strtoull.o(.text) refers to _chval.o(.text) for _chval
    _strtoull.o(.text) refers to errno.o(i.__aeabi_errno_addr) for __aeabi_errno_addr
    ctype_c.o(.text) refers to ctype_c.o(.constdata) for .constdata
    d2f.o(.text) refers to fepilogue.o(.text) for _float_round
    scanf_fp.o(i._is_digit) refers (Special) to iusefp.o(.text) for __I$use$fp


==============================================================================

Removing Unused input sections from the image.

    Removing core_cm3.o(.emb_text), (32 bytes).
    Removing startup_stm32f10x_hd.o(HEAP), (512 bytes).
    Removing misc.o(i.NVIC_SystemLPConfig), (24 bytes).
    Removing misc.o(i.SysTick_CLKSourceConfig), (24 bytes).
    Removing stm32f10x_adc.o(i.ADC_AnalogWatchdogCmd), (16 bytes).
    Removing stm32f10x_adc.o(i.ADC_AnalogWatchdogSingleChannelConfig), (12 bytes).
    Removing stm32f10x_adc.o(i.ADC_AnalogWatchdogThresholdsConfig), (6 bytes).
    Removing stm32f10x_adc.o(i.ADC_AutoInjectedConvCmd), (20 bytes).
    Removing stm32f10x_adc.o(i.ADC_ClearFlag), (6 bytes).
    Removing stm32f10x_adc.o(i.ADC_ClearITPendingBit), (8 bytes).
    Removing stm32f10x_adc.o(i.ADC_DiscModeChannelCountConfig), (16 bytes).
    Removing stm32f10x_adc.o(i.ADC_DiscModeCmd), (20 bytes).
    Removing stm32f10x_adc.o(i.ADC_ExternalTrigConvCmd), (20 bytes).
    Removing stm32f10x_adc.o(i.ADC_ExternalTrigInjectedConvCmd), (20 bytes).
    Removing stm32f10x_adc.o(i.ADC_ExternalTrigInjectedConvConfig), (12 bytes).
    Removing stm32f10x_adc.o(i.ADC_GetConversionValue), (6 bytes).
    Removing stm32f10x_adc.o(i.ADC_GetDualModeConversionValue), (12 bytes).
    Removing stm32f10x_adc.o(i.ADC_GetFlagStatus), (14 bytes).
    Removing stm32f10x_adc.o(i.ADC_GetITStatus), (28 bytes).
    Removing stm32f10x_adc.o(i.ADC_GetInjectedConversionValue), (14 bytes).
    Removing stm32f10x_adc.o(i.ADC_GetSoftwareStartConvStatus), (14 bytes).
    Removing stm32f10x_adc.o(i.ADC_GetSoftwareStartInjectedConvCmdStatus), (14 bytes).
    Removing stm32f10x_adc.o(i.ADC_ITConfig), (18 bytes).
    Removing stm32f10x_adc.o(i.ADC_InjectedChannelConfig), (74 bytes).
    Removing stm32f10x_adc.o(i.ADC_InjectedDiscModeCmd), (20 bytes).
    Removing stm32f10x_adc.o(i.ADC_InjectedSequencerLengthConfig), (16 bytes).
    Removing stm32f10x_adc.o(i.ADC_SetInjectedOffset), (10 bytes).
    Removing stm32f10x_adc.o(i.ADC_SoftwareStartInjectedConvCmd), (20 bytes).
    Removing stm32f10x_adc.o(i.ADC_StructInit), (18 bytes).
    Removing stm32f10x_adc.o(i.ADC_TempSensorVrefintCmd), (28 bytes).
    Removing stm32f10x_bkp.o(i.BKP_ClearFlag), (16 bytes).
    Removing stm32f10x_bkp.o(i.BKP_ClearITPendingBit), (16 bytes).
    Removing stm32f10x_bkp.o(i.BKP_DeInit), (18 bytes).
    Removing stm32f10x_bkp.o(i.BKP_GetFlagStatus), (12 bytes).
    Removing stm32f10x_bkp.o(i.BKP_GetITStatus), (12 bytes).
    Removing stm32f10x_bkp.o(i.BKP_ITConfig), (12 bytes).
    Removing stm32f10x_bkp.o(i.BKP_RTCOutputConfig), (20 bytes).
    Removing stm32f10x_bkp.o(i.BKP_ReadBackupRegister), (16 bytes).
    Removing stm32f10x_bkp.o(i.BKP_SetRTCCalibrationValue), (20 bytes).
    Removing stm32f10x_bkp.o(i.BKP_TamperPinCmd), (12 bytes).
    Removing stm32f10x_bkp.o(i.BKP_TamperPinLevelConfig), (12 bytes).
    Removing stm32f10x_bkp.o(i.BKP_WriteBackupRegister), (16 bytes).
    Removing stm32f10x_can.o(i.CAN_CancelTransmit), (36 bytes).
    Removing stm32f10x_can.o(i.CAN_ClearFlag), (48 bytes).
    Removing stm32f10x_can.o(i.CAN_ClearITPendingBit), (120 bytes).
    Removing stm32f10x_can.o(i.CAN_DBGFreeze), (20 bytes).
    Removing stm32f10x_can.o(i.CAN_DeInit), (44 bytes).
    Removing stm32f10x_can.o(i.CAN_FIFORelease), (22 bytes).
    Removing stm32f10x_can.o(i.CAN_FilterInit), (204 bytes).
    Removing stm32f10x_can.o(i.CAN_GetFlagStatus), (52 bytes).
    Removing stm32f10x_can.o(i.CAN_GetITStatus), (168 bytes).
    Removing stm32f10x_can.o(i.CAN_GetLSBTransmitErrorCounter), (8 bytes).
    Removing stm32f10x_can.o(i.CAN_GetLastErrorCode), (10 bytes).
    Removing stm32f10x_can.o(i.CAN_GetReceiveErrorCounter), (6 bytes).
    Removing stm32f10x_can.o(i.CAN_ITConfig), (16 bytes).
    Removing stm32f10x_can.o(i.CAN_Init), (232 bytes).
    Removing stm32f10x_can.o(i.CAN_MessagePending), (22 bytes).
    Removing stm32f10x_can.o(i.CAN_OperatingModeRequest), (140 bytes).
    Removing stm32f10x_can.o(i.CAN_Receive), (144 bytes).
    Removing stm32f10x_can.o(i.CAN_SlaveStartBank), (44 bytes).
    Removing stm32f10x_can.o(i.CAN_Sleep), (30 bytes).
    Removing stm32f10x_can.o(i.CAN_StructInit), (32 bytes).
    Removing stm32f10x_can.o(i.CAN_TTComModeCmd), (90 bytes).
    Removing stm32f10x_can.o(i.CAN_Transmit), (164 bytes).
    Removing stm32f10x_can.o(i.CAN_TransmitStatus), (108 bytes).
    Removing stm32f10x_can.o(i.CAN_WakeUp), (40 bytes).
    Removing stm32f10x_can.o(i.CheckITStatus), (12 bytes).
    Removing stm32f10x_cec.o(i.CEC_ClearFlag), (32 bytes).
    Removing stm32f10x_cec.o(i.CEC_ClearITPendingBit), (32 bytes).
    Removing stm32f10x_cec.o(i.CEC_Cmd), (28 bytes).
    Removing stm32f10x_cec.o(i.CEC_DeInit), (24 bytes).
    Removing stm32f10x_cec.o(i.CEC_EndOfMessageCmd), (12 bytes).
    Removing stm32f10x_cec.o(i.CEC_GetFlagStatus), (36 bytes).
    Removing stm32f10x_cec.o(i.CEC_GetITStatus), (36 bytes).
    Removing stm32f10x_cec.o(i.CEC_ITConfig), (12 bytes).
    Removing stm32f10x_cec.o(i.CEC_Init), (24 bytes).
    Removing stm32f10x_cec.o(i.CEC_OwnAddressConfig), (12 bytes).
    Removing stm32f10x_cec.o(i.CEC_ReceiveDataByte), (12 bytes).
    Removing stm32f10x_cec.o(i.CEC_SendDataByte), (12 bytes).
    Removing stm32f10x_cec.o(i.CEC_SetPrescaler), (12 bytes).
    Removing stm32f10x_cec.o(i.CEC_StartOfMessage), (16 bytes).
    Removing stm32f10x_crc.o(i.CRC_CalcBlockCRC), (28 bytes).
    Removing stm32f10x_crc.o(i.CRC_CalcCRC), (12 bytes).
    Removing stm32f10x_crc.o(i.CRC_GetCRC), (12 bytes).
    Removing stm32f10x_crc.o(i.CRC_GetIDRegister), (12 bytes).
    Removing stm32f10x_crc.o(i.CRC_ResetDR), (12 bytes).
    Removing stm32f10x_crc.o(i.CRC_SetIDRegister), (12 bytes).
    Removing stm32f10x_dac.o(i.DAC_Cmd), (24 bytes).
    Removing stm32f10x_dac.o(i.DAC_DMACmd), (24 bytes).
    Removing stm32f10x_dac.o(i.DAC_DeInit), (24 bytes).
    Removing stm32f10x_dac.o(i.DAC_DualSoftwareTriggerCmd), (28 bytes).
    Removing stm32f10x_dac.o(i.DAC_GetDataOutputValue), (24 bytes).
    Removing stm32f10x_dac.o(i.DAC_Init), (40 bytes).
    Removing stm32f10x_dac.o(i.DAC_SetChannel1Data), (20 bytes).
    Removing stm32f10x_dac.o(i.DAC_SetChannel2Data), (20 bytes).
    Removing stm32f10x_dac.o(i.DAC_SetDualChannelData), (28 bytes).
    Removing stm32f10x_dac.o(i.DAC_SoftwareTriggerCmd), (28 bytes).
    Removing stm32f10x_dac.o(i.DAC_StructInit), (12 bytes).
    Removing stm32f10x_dac.o(i.DAC_WaveGenerationCmd), (24 bytes).
    Removing stm32f10x_dbgmcu.o(i.DBGMCU_Config), (24 bytes).
    Removing stm32f10x_dbgmcu.o(i.DBGMCU_GetDEVID), (16 bytes).
    Removing stm32f10x_dbgmcu.o(i.DBGMCU_GetREVID), (12 bytes).
    Removing stm32f10x_dma.o(i.DMA_ClearFlag), (24 bytes).
    Removing stm32f10x_dma.o(i.DMA_GetCurrDataCounter), (6 bytes).
    Removing stm32f10x_dma.o(i.DMA_GetFlagStatus), (32 bytes).
    Removing stm32f10x_dma.o(i.DMA_GetITStatus), (32 bytes).
    Removing stm32f10x_dma.o(i.DMA_SetCurrDataCounter), (4 bytes).
    Removing stm32f10x_dma.o(i.DMA_StructInit), (26 bytes).
    Removing stm32f10x_exti.o(i.EXTI_ClearFlag), (12 bytes).
    Removing stm32f10x_exti.o(i.EXTI_ClearITPendingBit), (12 bytes).
    Removing stm32f10x_exti.o(i.EXTI_DeInit), (36 bytes).
    Removing stm32f10x_exti.o(i.EXTI_GenerateSWInterrupt), (16 bytes).
    Removing stm32f10x_exti.o(i.EXTI_GetFlagStatus), (20 bytes).
    Removing stm32f10x_exti.o(i.EXTI_GetITStatus), (32 bytes).
    Removing stm32f10x_exti.o(i.EXTI_Init), (112 bytes).
    Removing stm32f10x_exti.o(i.EXTI_StructInit), (14 bytes).
    Removing stm32f10x_flash.o(i.FLASH_ClearFlag), (12 bytes).
    Removing stm32f10x_flash.o(i.FLASH_EnableWriteProtection), (172 bytes).
    Removing stm32f10x_flash.o(i.FLASH_EraseAllBank1Pages), (56 bytes).
    Removing stm32f10x_flash.o(i.FLASH_EraseAllPages), (56 bytes).
    Removing stm32f10x_flash.o(i.FLASH_EraseOptionBytes), (124 bytes).
    Removing stm32f10x_flash.o(i.FLASH_ErasePage), (60 bytes).
    Removing stm32f10x_flash.o(i.FLASH_GetBank1Status), (40 bytes).
    Removing stm32f10x_flash.o(i.FLASH_GetFlagStatus), (32 bytes).
    Removing stm32f10x_flash.o(i.FLASH_GetPrefetchBufferStatus), (20 bytes).
    Removing stm32f10x_flash.o(i.FLASH_GetReadOutProtectionStatus), (20 bytes).
    Removing stm32f10x_flash.o(i.FLASH_GetStatus), (40 bytes).
    Removing stm32f10x_flash.o(i.FLASH_GetUserOptionByte), (12 bytes).
    Removing stm32f10x_flash.o(i.FLASH_GetWriteProtectionOptionByte), (12 bytes).
    Removing stm32f10x_flash.o(i.FLASH_HalfCycleAccessCmd), (24 bytes).
    Removing stm32f10x_flash.o(i.FLASH_ITConfig), (24 bytes).
    Removing stm32f10x_flash.o(i.FLASH_Lock), (16 bytes).
    Removing stm32f10x_flash.o(i.FLASH_LockBank1), (16 bytes).
    Removing stm32f10x_flash.o(i.FLASH_ProgramHalfWord), (52 bytes).
    Removing stm32f10x_flash.o(i.FLASH_ProgramOptionByteData), (76 bytes).
    Removing stm32f10x_flash.o(i.FLASH_ProgramWord), (80 bytes).
    Removing stm32f10x_flash.o(i.FLASH_ReadOutProtection), (136 bytes).
    Removing stm32f10x_flash.o(i.FLASH_Unlock), (24 bytes).
    Removing stm32f10x_flash.o(i.FLASH_UnlockBank1), (24 bytes).
    Removing stm32f10x_flash.o(i.FLASH_UserOptionByteConfig), (96 bytes).
    Removing stm32f10x_flash.o(i.FLASH_WaitForLastBank1Operation), (36 bytes).
    Removing stm32f10x_flash.o(i.FLASH_WaitForLastOperation), (36 bytes).
    Removing stm32f10x_fsmc.o(i.FSMC_ClearFlag), (38 bytes).
    Removing stm32f10x_fsmc.o(i.FSMC_ClearITPendingBit), (44 bytes).
    Removing stm32f10x_fsmc.o(i.FSMC_GetECC), (18 bytes).
    Removing stm32f10x_fsmc.o(i.FSMC_GetFlagStatus), (40 bytes).
    Removing stm32f10x_fsmc.o(i.FSMC_GetITStatus), (48 bytes).
    Removing stm32f10x_fsmc.o(i.FSMC_ITConfig), (72 bytes).
    Removing stm32f10x_fsmc.o(i.FSMC_NANDCmd), (56 bytes).
    Removing stm32f10x_fsmc.o(i.FSMC_NANDDeInit), (40 bytes).
    Removing stm32f10x_fsmc.o(i.FSMC_NANDECCCmd), (56 bytes).
    Removing stm32f10x_fsmc.o(i.FSMC_NANDInit), (104 bytes).
    Removing stm32f10x_fsmc.o(i.FSMC_NANDStructInit), (54 bytes).
    Removing stm32f10x_fsmc.o(i.FSMC_NORSRAMCmd), (32 bytes).
    Removing stm32f10x_fsmc.o(i.FSMC_NORSRAMDeInit), (40 bytes).
    Removing stm32f10x_fsmc.o(i.FSMC_NORSRAMInit), (200 bytes).
    Removing stm32f10x_fsmc.o(i.FSMC_NORSRAMStructInit), (98 bytes).
    Removing stm32f10x_fsmc.o(i.FSMC_PCCARDCmd), (32 bytes).
    Removing stm32f10x_fsmc.o(i.FSMC_PCCARDDeInit), (26 bytes).
    Removing stm32f10x_fsmc.o(i.FSMC_PCCARDInit), (102 bytes).
    Removing stm32f10x_fsmc.o(i.FSMC_PCCARDStructInit), (60 bytes).
    Removing stm32f10x_gpio.o(i.GPIO_ETH_MediaInterfaceConfig), (12 bytes).
    Removing stm32f10x_gpio.o(i.GPIO_EXTILineConfig), (40 bytes).
    Removing stm32f10x_gpio.o(i.GPIO_EventOutputCmd), (12 bytes).
    Removing stm32f10x_gpio.o(i.GPIO_EventOutputConfig), (28 bytes).
    Removing stm32f10x_gpio.o(i.GPIO_PinLockConfig), (16 bytes).
    Removing stm32f10x_gpio.o(i.GPIO_ReadInputData), (6 bytes).
    Removing stm32f10x_gpio.o(i.GPIO_ReadOutputData), (6 bytes).
    Removing stm32f10x_gpio.o(i.GPIO_ReadOutputDataBit), (14 bytes).
    Removing stm32f10x_gpio.o(i.GPIO_StructInit), (16 bytes).
    Removing stm32f10x_gpio.o(i.GPIO_Write), (4 bytes).
    Removing stm32f10x_gpio.o(i.GPIO_WriteBit), (10 bytes).
    Removing stm32f10x_i2c.o(i.I2C_ARPCmd), (20 bytes).
    Removing stm32f10x_i2c.o(i.I2C_AcknowledgeConfig), (20 bytes).
    Removing stm32f10x_i2c.o(i.I2C_CalculatePEC), (20 bytes).
    Removing stm32f10x_i2c.o(i.I2C_CheckEvent), (24 bytes).
    Removing stm32f10x_i2c.o(i.I2C_ClearFlag), (6 bytes).
    Removing stm32f10x_i2c.o(i.I2C_ClearITPendingBit), (6 bytes).
    Removing stm32f10x_i2c.o(i.I2C_Cmd), (20 bytes).
    Removing stm32f10x_i2c.o(i.I2C_DMACmd), (20 bytes).
    Removing stm32f10x_i2c.o(i.I2C_DMALastTransferCmd), (20 bytes).
    Removing stm32f10x_i2c.o(i.I2C_DeInit), (44 bytes).
    Removing stm32f10x_i2c.o(i.I2C_DualAddressCmd), (20 bytes).
    Removing stm32f10x_i2c.o(i.I2C_FastModeDutyCycleConfig), (22 bytes).
    Removing stm32f10x_i2c.o(i.I2C_GeneralCallCmd), (20 bytes).
    Removing stm32f10x_i2c.o(i.I2C_GenerateSTART), (20 bytes).
    Removing stm32f10x_i2c.o(i.I2C_GenerateSTOP), (20 bytes).
    Removing stm32f10x_i2c.o(i.I2C_GetFlagStatus), (42 bytes).
    Removing stm32f10x_i2c.o(i.I2C_GetITStatus), (36 bytes).
    Removing stm32f10x_i2c.o(i.I2C_GetLastEvent), (14 bytes).
    Removing stm32f10x_i2c.o(i.I2C_GetPEC), (6 bytes).
    Removing stm32f10x_i2c.o(i.I2C_ITConfig), (16 bytes).
    Removing stm32f10x_i2c.o(i.I2C_Init), (188 bytes).
    Removing stm32f10x_i2c.o(i.I2C_NACKPositionConfig), (22 bytes).
    Removing stm32f10x_i2c.o(i.I2C_OwnAddress2Config), (16 bytes).
    Removing stm32f10x_i2c.o(i.I2C_PECPositionConfig), (22 bytes).
    Removing stm32f10x_i2c.o(i.I2C_ReadRegister), (10 bytes).
    Removing stm32f10x_i2c.o(i.I2C_ReceiveData), (6 bytes).
    Removing stm32f10x_i2c.o(i.I2C_SMBusAlertConfig), (22 bytes).
    Removing stm32f10x_i2c.o(i.I2C_Send7bitAddress), (16 bytes).
    Removing stm32f10x_i2c.o(i.I2C_SendData), (4 bytes).
    Removing stm32f10x_i2c.o(i.I2C_SoftwareResetCmd), (20 bytes).
    Removing stm32f10x_i2c.o(i.I2C_StretchClockCmd), (20 bytes).
    Removing stm32f10x_i2c.o(i.I2C_StructInit), (28 bytes).
    Removing stm32f10x_i2c.o(i.I2C_TransmitPEC), (20 bytes).
    Removing stm32f10x_iwdg.o(i.IWDG_GetFlagStatus), (20 bytes).
    Removing stm32f10x_pwr.o(i.PWR_BackupAccessCmd), (12 bytes).
    Removing stm32f10x_pwr.o(i.PWR_ClearFlag), (16 bytes).
    Removing stm32f10x_pwr.o(i.PWR_DeInit), (24 bytes).
    Removing stm32f10x_pwr.o(i.PWR_EnterSTANDBYMode), (40 bytes).
    Removing stm32f10x_pwr.o(i.PWR_EnterSTOPMode), (52 bytes).
    Removing stm32f10x_pwr.o(i.PWR_GetFlagStatus), (20 bytes).
    Removing stm32f10x_pwr.o(i.PWR_PVDCmd), (12 bytes).
    Removing stm32f10x_pwr.o(i.PWR_PVDLevelConfig), (20 bytes).
    Removing stm32f10x_pwr.o(i.PWR_WakeUpPinCmd), (12 bytes).
    Removing stm32f10x_rcc.o(i.RCC_APB1PeriphResetCmd), (24 bytes).
    Removing stm32f10x_rcc.o(i.RCC_AdjustHSICalibrationValue), (20 bytes).
    Removing stm32f10x_rcc.o(i.RCC_BackupResetCmd), (12 bytes).
    Removing stm32f10x_rcc.o(i.RCC_ClearFlag), (16 bytes).
    Removing stm32f10x_rcc.o(i.RCC_ClearITPendingBit), (12 bytes).
    Removing stm32f10x_rcc.o(i.RCC_ClockSecuritySystemCmd), (12 bytes).
    Removing stm32f10x_rcc.o(i.RCC_GetITStatus), (20 bytes).
    Removing stm32f10x_rcc.o(i.RCC_HSICmd), (12 bytes).
    Removing stm32f10x_rcc.o(i.RCC_ITConfig), (24 bytes).
    Removing stm32f10x_rcc.o(i.RCC_LSEConfig), (32 bytes).
    Removing stm32f10x_rcc.o(i.RCC_LSICmd), (12 bytes).
    Removing stm32f10x_rcc.o(i.RCC_MCOConfig), (12 bytes).
    Removing stm32f10x_rcc.o(i.RCC_RTCCLKCmd), (12 bytes).
    Removing stm32f10x_rcc.o(i.RCC_RTCCLKConfig), (16 bytes).
    Removing stm32f10x_rcc.o(i.RCC_USBCLKConfig), (12 bytes).
    Removing stm32f10x_rtc.o(i.RTC_ClearFlag), (16 bytes).
    Removing stm32f10x_rtc.o(i.RTC_ClearITPendingBit), (16 bytes).
    Removing stm32f10x_rtc.o(i.RTC_EnterConfigMode), (16 bytes).
    Removing stm32f10x_rtc.o(i.RTC_ExitConfigMode), (16 bytes).
    Removing stm32f10x_rtc.o(i.RTC_GetCounter), (20 bytes).
    Removing stm32f10x_rtc.o(i.RTC_GetDivider), (24 bytes).
    Removing stm32f10x_rtc.o(i.RTC_GetFlagStatus), (20 bytes).
    Removing stm32f10x_rtc.o(i.RTC_GetITStatus), (32 bytes).
    Removing stm32f10x_rtc.o(i.RTC_ITConfig), (24 bytes).
    Removing stm32f10x_rtc.o(i.RTC_SetAlarm), (32 bytes).
    Removing stm32f10x_rtc.o(i.RTC_SetCounter), (32 bytes).
    Removing stm32f10x_rtc.o(i.RTC_SetPrescaler), (32 bytes).
    Removing stm32f10x_rtc.o(i.RTC_WaitForLastTask), (16 bytes).
    Removing stm32f10x_rtc.o(i.RTC_WaitForSynchro), (24 bytes).
    Removing stm32f10x_sdio.o(i.SDIO_CEATAITCmd), (16 bytes).
    Removing stm32f10x_sdio.o(i.SDIO_ClearFlag), (12 bytes).
    Removing stm32f10x_sdio.o(i.SDIO_ClearITPendingBit), (12 bytes).
    Removing stm32f10x_sdio.o(i.SDIO_ClockCmd), (12 bytes).
    Removing stm32f10x_sdio.o(i.SDIO_CmdStructInit), (14 bytes).
    Removing stm32f10x_sdio.o(i.SDIO_CommandCompletionCmd), (12 bytes).
    Removing stm32f10x_sdio.o(i.SDIO_DMACmd), (12 bytes).
    Removing stm32f10x_sdio.o(i.SDIO_DataConfig), (44 bytes).
    Removing stm32f10x_sdio.o(i.SDIO_DataStructInit), (20 bytes).
    Removing stm32f10x_sdio.o(i.SDIO_DeInit), (36 bytes).
    Removing stm32f10x_sdio.o(i.SDIO_GetCommandResponse), (12 bytes).
    Removing stm32f10x_sdio.o(i.SDIO_GetDataCounter), (12 bytes).
    Removing stm32f10x_sdio.o(i.SDIO_GetFIFOCount), (12 bytes).
    Removing stm32f10x_sdio.o(i.SDIO_GetFlagStatus), (20 bytes).
    Removing stm32f10x_sdio.o(i.SDIO_GetITStatus), (20 bytes).
    Removing stm32f10x_sdio.o(i.SDIO_GetPowerState), (16 bytes).
    Removing stm32f10x_sdio.o(i.SDIO_GetResponse), (16 bytes).
    Removing stm32f10x_sdio.o(i.SDIO_ITConfig), (24 bytes).
    Removing stm32f10x_sdio.o(i.SDIO_Init), (44 bytes).
    Removing stm32f10x_sdio.o(i.SDIO_ReadData), (12 bytes).
    Removing stm32f10x_sdio.o(i.SDIO_SendCEATACmd), (12 bytes).
    Removing stm32f10x_sdio.o(i.SDIO_SendCommand), (40 bytes).
    Removing stm32f10x_sdio.o(i.SDIO_SendSDIOSuspendCmd), (12 bytes).
    Removing stm32f10x_sdio.o(i.SDIO_SetPowerState), (24 bytes).
    Removing stm32f10x_sdio.o(i.SDIO_SetSDIOOperation), (12 bytes).
    Removing stm32f10x_sdio.o(i.SDIO_SetSDIOReadWaitMode), (12 bytes).
    Removing stm32f10x_sdio.o(i.SDIO_StartSDIOReadWait), (12 bytes).
    Removing stm32f10x_sdio.o(i.SDIO_StopSDIOReadWait), (12 bytes).
    Removing stm32f10x_sdio.o(i.SDIO_StructInit), (16 bytes).
    Removing stm32f10x_sdio.o(i.SDIO_WriteData), (12 bytes).
    Removing stm32f10x_spi.o(i.I2S_Cmd), (20 bytes).
    Removing stm32f10x_spi.o(i.I2S_Init), (152 bytes).
    Removing stm32f10x_spi.o(i.I2S_StructInit), (18 bytes).
    Removing stm32f10x_spi.o(i.SPI_BiDirectionalLineConfig), (22 bytes).
    Removing stm32f10x_spi.o(i.SPI_CalculateCRC), (20 bytes).
    Removing stm32f10x_spi.o(i.SPI_DataSizeConfig), (16 bytes).
    Removing stm32f10x_spi.o(i.SPI_GetCRC), (12 bytes).
    Removing stm32f10x_spi.o(i.SPI_GetCRCPolynomial), (4 bytes).
    Removing stm32f10x_spi.o(i.SPI_I2S_ClearFlag), (6 bytes).
    Removing stm32f10x_spi.o(i.SPI_I2S_ClearITPendingBit), (14 bytes).
    Removing stm32f10x_spi.o(i.SPI_I2S_DMACmd), (16 bytes).
    Removing stm32f10x_spi.o(i.SPI_I2S_DeInit), (84 bytes).
    Removing stm32f10x_spi.o(i.SPI_I2S_GetITStatus), (42 bytes).
    Removing stm32f10x_spi.o(i.SPI_I2S_ITConfig), (24 bytes).
    Removing stm32f10x_spi.o(i.SPI_NSSInternalSoftwareConfig), (24 bytes).
    Removing stm32f10x_spi.o(i.SPI_SSOutputCmd), (20 bytes).
    Removing stm32f10x_spi.o(i.SPI_StructInit), (24 bytes).
    Removing stm32f10x_spi.o(i.SPI_TransmitCRC), (10 bytes).
    Removing stm32f10x_tim.o(i.TI1_Config), (108 bytes).
    Removing stm32f10x_tim.o(i.TI2_Config), (124 bytes).
    Removing stm32f10x_tim.o(i.TIM_ARRPreloadConfig), (20 bytes).
    Removing stm32f10x_tim.o(i.TIM_BDTRConfig), (34 bytes).
    Removing stm32f10x_tim.o(i.TIM_BDTRStructInit), (18 bytes).
    Removing stm32f10x_tim.o(i.TIM_CCPreloadControl), (20 bytes).
    Removing stm32f10x_tim.o(i.TIM_CCxCmd), (22 bytes).
    Removing stm32f10x_tim.o(i.TIM_CCxNCmd), (22 bytes).
    Removing stm32f10x_tim.o(i.TIM_ClearFlag), (6 bytes).
    Removing stm32f10x_tim.o(i.TIM_ClearOC1Ref), (12 bytes).
    Removing stm32f10x_tim.o(i.TIM_ClearOC2Ref), (20 bytes).
    Removing stm32f10x_tim.o(i.TIM_ClearOC3Ref), (12 bytes).
    Removing stm32f10x_tim.o(i.TIM_ClearOC4Ref), (20 bytes).
    Removing stm32f10x_tim.o(i.TIM_CounterModeConfig), (12 bytes).
    Removing stm32f10x_tim.o(i.TIM_CtrlPWMOutputs), (22 bytes).
    Removing stm32f10x_tim.o(i.TIM_DMACmd), (16 bytes).
    Removing stm32f10x_tim.o(i.TIM_DMAConfig), (8 bytes).
    Removing stm32f10x_tim.o(i.TIM_DeInit), (368 bytes).
    Removing stm32f10x_tim.o(i.TIM_ETRClockMode1Config), (18 bytes).
    Removing stm32f10x_tim.o(i.TIM_ETRClockMode2Config), (18 bytes).
    Removing stm32f10x_tim.o(i.TIM_ETRConfig), (24 bytes).
    Removing stm32f10x_tim.o(i.TIM_EncoderInterfaceConfig), (50 bytes).
    Removing stm32f10x_tim.o(i.TIM_ForcedOC1Config), (12 bytes).
    Removing stm32f10x_tim.o(i.TIM_ForcedOC2Config), (20 bytes).
    Removing stm32f10x_tim.o(i.TIM_ForcedOC3Config), (12 bytes).
    Removing stm32f10x_tim.o(i.TIM_ForcedOC4Config), (20 bytes).
    Removing stm32f10x_tim.o(i.TIM_GenerateEvent), (4 bytes).
    Removing stm32f10x_tim.o(i.TIM_GetCapture1), (4 bytes).
    Removing stm32f10x_tim.o(i.TIM_GetCapture2), (4 bytes).
    Removing stm32f10x_tim.o(i.TIM_GetCapture3), (4 bytes).
    Removing stm32f10x_tim.o(i.TIM_GetCapture4), (6 bytes).
    Removing stm32f10x_tim.o(i.TIM_GetCounter), (4 bytes).
    Removing stm32f10x_tim.o(i.TIM_GetFlagStatus), (14 bytes).
    Removing stm32f10x_tim.o(i.TIM_GetITStatus), (24 bytes).
    Removing stm32f10x_tim.o(i.TIM_GetPrescaler), (4 bytes).
    Removing stm32f10x_tim.o(i.TIM_ICInit), (300 bytes).
    Removing stm32f10x_tim.o(i.TIM_ICStructInit), (16 bytes).
    Removing stm32f10x_tim.o(i.TIM_ITRxExternalClockConfig), (18 bytes).
    Removing stm32f10x_tim.o(i.TIM_InternalClockConfig), (10 bytes).
    Removing stm32f10x_tim.o(i.TIM_OC1FastConfig), (12 bytes).
    Removing stm32f10x_tim.o(i.TIM_OC1Init), (128 bytes).
    Removing stm32f10x_tim.o(i.TIM_OC1NPolarityConfig), (12 bytes).
    Removing stm32f10x_tim.o(i.TIM_OC1PolarityConfig), (12 bytes).
    Removing stm32f10x_tim.o(i.TIM_OC1PreloadConfig), (12 bytes).
    Removing stm32f10x_tim.o(i.TIM_OC2FastConfig), (20 bytes).
    Removing stm32f10x_tim.o(i.TIM_OC2Init), (128 bytes).
    Removing stm32f10x_tim.o(i.TIM_OC2NPolarityConfig), (20 bytes).
    Removing stm32f10x_tim.o(i.TIM_OC2PolarityConfig), (20 bytes).
    Removing stm32f10x_tim.o(i.TIM_OC2PreloadConfig), (20 bytes).
    Removing stm32f10x_tim.o(i.TIM_OC3FastConfig), (12 bytes).
    Removing stm32f10x_tim.o(i.TIM_OC3Init), (124 bytes).
    Removing stm32f10x_tim.o(i.TIM_OC3NPolarityConfig), (20 bytes).
    Removing stm32f10x_tim.o(i.TIM_OC3PolarityConfig), (20 bytes).
    Removing stm32f10x_tim.o(i.TIM_OC3PreloadConfig), (12 bytes).
    Removing stm32f10x_tim.o(i.TIM_OC4FastConfig), (20 bytes).
    Removing stm32f10x_tim.o(i.TIM_OC4Init), (100 bytes).
    Removing stm32f10x_tim.o(i.TIM_OC4PolarityConfig), (20 bytes).
    Removing stm32f10x_tim.o(i.TIM_OC4PreloadConfig), (20 bytes).
    Removing stm32f10x_tim.o(i.TIM_OCStructInit), (20 bytes).
    Removing stm32f10x_tim.o(i.TIM_PWMIConfig), (108 bytes).
    Removing stm32f10x_tim.o(i.TIM_PrescalerConfig), (6 bytes).
    Removing stm32f10x_tim.o(i.TIM_SelectCCDMA), (20 bytes).
    Removing stm32f10x_tim.o(i.TIM_SelectCOM), (20 bytes).
    Removing stm32f10x_tim.o(i.TIM_SelectHallSensor), (20 bytes).
    Removing stm32f10x_tim.o(i.TIM_SelectInputTrigger), (12 bytes).
    Removing stm32f10x_tim.o(i.TIM_SelectMasterSlaveMode), (16 bytes).
    Removing stm32f10x_tim.o(i.TIM_SelectOCxM), (70 bytes).
    Removing stm32f10x_tim.o(i.TIM_SelectOnePulseMode), (16 bytes).
    Removing stm32f10x_tim.o(i.TIM_SelectOutputTrigger), (16 bytes).
    Removing stm32f10x_tim.o(i.TIM_SelectSlaveMode), (16 bytes).
    Removing stm32f10x_tim.o(i.TIM_SetAutoreload), (4 bytes).
    Removing stm32f10x_tim.o(i.TIM_SetClockDivision), (16 bytes).
    Removing stm32f10x_tim.o(i.TIM_SetCompare1), (4 bytes).
    Removing stm32f10x_tim.o(i.TIM_SetCompare2), (4 bytes).
    Removing stm32f10x_tim.o(i.TIM_SetCompare3), (4 bytes).
    Removing stm32f10x_tim.o(i.TIM_SetCompare4), (6 bytes).
    Removing stm32f10x_tim.o(i.TIM_SetCounter), (4 bytes).
    Removing stm32f10x_tim.o(i.TIM_SetIC1Prescaler), (16 bytes).
    Removing stm32f10x_tim.o(i.TIM_SetIC2Prescaler), (24 bytes).
    Removing stm32f10x_tim.o(i.TIM_SetIC3Prescaler), (16 bytes).
    Removing stm32f10x_tim.o(i.TIM_SetIC4Prescaler), (24 bytes).
    Removing stm32f10x_tim.o(i.TIM_TIxExternalClockConfig), (46 bytes).
    Removing stm32f10x_tim.o(i.TIM_TimeBaseStructInit), (18 bytes).
    Removing stm32f10x_tim.o(i.TIM_UpdateDisableConfig), (20 bytes).
    Removing stm32f10x_tim.o(i.TIM_UpdateRequestConfig), (20 bytes).
    Removing stm32f10x_usart.o(i.USART_ClockInit), (30 bytes).
    Removing stm32f10x_usart.o(i.USART_ClockStructInit), (12 bytes).
    Removing stm32f10x_usart.o(i.USART_DMACmd), (16 bytes).
    Removing stm32f10x_usart.o(i.USART_DeInit), (116 bytes).
    Removing stm32f10x_usart.o(i.USART_HalfDuplexCmd), (20 bytes).
    Removing stm32f10x_usart.o(i.USART_IrDACmd), (20 bytes).
    Removing stm32f10x_usart.o(i.USART_IrDAConfig), (16 bytes).
    Removing stm32f10x_usart.o(i.USART_LINBreakDetectLengthConfig), (16 bytes).
    Removing stm32f10x_usart.o(i.USART_LINCmd), (20 bytes).
    Removing stm32f10x_usart.o(i.USART_OneBitMethodCmd), (20 bytes).
    Removing stm32f10x_usart.o(i.USART_OverSampling8Cmd), (20 bytes).
    Removing stm32f10x_usart.o(i.USART_ReceiverWakeUpCmd), (20 bytes).
    Removing stm32f10x_usart.o(i.USART_SendBreak), (10 bytes).
    Removing stm32f10x_usart.o(i.USART_SetAddress), (16 bytes).
    Removing stm32f10x_usart.o(i.USART_SetGuardTime), (16 bytes).
    Removing stm32f10x_usart.o(i.USART_SetPrescaler), (16 bytes).
    Removing stm32f10x_usart.o(i.USART_SmartCardCmd), (20 bytes).
    Removing stm32f10x_usart.o(i.USART_SmartCardNACKCmd), (20 bytes).
    Removing stm32f10x_usart.o(i.USART_StructInit), (22 bytes).
    Removing stm32f10x_usart.o(i.USART_WakeUpConfig), (16 bytes).
    Removing stm32f10x_wwdg.o(i.WWDG_ClearFlag), (12 bytes).
    Removing stm32f10x_wwdg.o(i.WWDG_DeInit), (24 bytes).
    Removing stm32f10x_wwdg.o(i.WWDG_Enable), (16 bytes).
    Removing stm32f10x_wwdg.o(i.WWDG_EnableIT), (16 bytes).
    Removing stm32f10x_wwdg.o(i.WWDG_GetFlagStatus), (12 bytes).
    Removing stm32f10x_wwdg.o(i.WWDG_SetCounter), (16 bytes).
    Removing stm32f10x_wwdg.o(i.WWDG_SetPrescaler), (20 bytes).
    Removing stm32f10x_wwdg.o(i.WWDG_SetWindowValue), (28 bytes).
    Removing main.o(i.SCPI_Control), (4 bytes).
    Removing main.o(i.SCPI_Error), (4 bytes).
    Removing main.o(i.SCPI_Flush), (4 bytes).
    Removing main.o(i.SCPI_Reset), (4 bytes).
    Removing main.o(i.SCPI_SystemCommTcpipControlQ), (6 bytes).
    Removing main.o(.bss), (20 bytes).
    Removing main.o(.data), (4 bytes).
    Removing main.o(.data), (4 bytes).
    Removing main.o(.data), (4 bytes).
    Removing main.o(.data), (4 bytes).
    Removing main.o(.data), (2 bytes).
    Removing stm32f10x_it.o(.data), (1 bytes).
    Removing stm32f10x_it.o(.data), (1 bytes).
    Removing system_stm32f10x.o(i.SystemCoreClockUpdate), (100 bytes).
    Removing adc.o(.data), (2 bytes).
    Removing beep.o(i.BEEP_Ring), (2 bytes).
    Removing beep.o(i.BEEP_Tiggr), (28 bytes).
    Removing beep.o(.data), (1 bytes).
    Removing beep.o(.data), (2 bytes).
    Removing beep.o(.data), (2 bytes).
    Removing beep.o(.data), (2 bytes).
    Removing beep.o(.data), (2 bytes).
    Removing beep.o(.data), (2 bytes).
    Removing beep.o(.data), (2 bytes).
    Removing beep.o(.data), (2 bytes).
    Removing beep.o(.data), (2 bytes).
    Removing beep.o(.data), (2 bytes).
    Removing beep.o(.data), (2 bytes).
    Removing bsp_systick.o(i.Delay_us), (32 bytes).
    Removing at24c01.o(i.ReadBytes), (128 bytes).
    Removing at24c01.o(i.WriteBytes), (174 bytes).
    Removing at24c01.o(i.ee_CheckOk), (22 bytes).
    Removing at24c01.o(i.ee_Erase), (44 bytes).
    Removing flash.o(i.READ_TSET), (72 bytes).
    Removing flash.o(i.Read_Runcont), (1564 bytes).
    Removing flash.o(i.Wite_Runcont), (2090 bytes).
    Removing flash.o(.bss), (96 bytes).
    Removing flash.o(.data), (4 bytes).
    Removing iic_24c01.o(i.i2c_Ack), (64 bytes).
    Removing iic_24c01.o(i.i2c_CheckDevice), (38 bytes).
    Removing key.o(.data), (1 bytes).
    Removing key.o(.data), (4 bytes).
    Removing key.o(.data), (1 bytes).
    Removing key.o(.data), (1 bytes).
    Removing key.o(.data), (1 bytes).
    Removing key.o(.data), (2 bytes).
    Removing key.o(.data), (2 bytes).
    Removing key.o(.data), (2 bytes).
    Removing key.o(.data), (2 bytes).
    Removing modbus.o(i.Hardware_CRC_Re), (160 bytes).
    Removing modbus.o(.bss), (96 bytes).
    Removing modbus.o(.data), (4 bytes).
    Removing modbus.o(.data), (4 bytes).
    Removing modbus.o(.data), (4 bytes).
    Removing modbus.o(.data), (4 bytes).
    Removing modbus.o(.data), (4 bytes).
    Removing modbus.o(.data), (4 bytes).
    Removing modbus.o(.data), (4 bytes).
    Removing modbus.o(.data), (4 bytes).
    Removing modbus.o(.data), (4 bytes).
    Removing modbus.o(.data), (4 bytes).
    Removing modbus.o(.data), (4 bytes).
    Removing modbus.o(.data), (4 bytes).
    Removing usart.o(i.Clear_Date), (42 bytes).
    Removing usart.o(i.Usart1_Sendstring), (76 bytes).
    Removing usart.o(i._sys_exit), (2 bytes).
    Removing usart.o(i.fputc), (24 bytes).
    Removing usart.o(.data), (4 bytes).
    Removing fan_pro.o(.data), (2 bytes).
    Removing menu.o(i.MAXPAR_limit), (96 bytes).
    Removing ad7689.o(i.AD7689_Delay1), (30 bytes).
    Removing ad7689.o(.bss), (40 bytes).
    Removing scpi-def.o(.bss), (500 bytes).
    Removing scpi-def.o(.data), (1 bytes).
    Removing expression.o(i.SCPI_ExprNumericListEntry), (184 bytes).
    Removing expression.o(i.SCPI_ExprNumericListEntryDouble), (80 bytes).
    Removing expression.o(i.SCPI_ExprNumericListEntryInt), (80 bytes).
    Removing ieee488.o(i.SCPI_CoreTstQ), (12 bytes).
    Removing minimal.o(i.SCPI_StatusOperationConditionQ), (22 bytes).
    Removing minimal.o(i.SCPI_StatusOperationEnable), (30 bytes).
    Removing minimal.o(i.SCPI_StatusOperationEnableQ), (22 bytes).
    Removing minimal.o(i.SCPI_StatusOperationEventQ), (32 bytes).
    Removing minimal.o(i.SCPI_StatusQuestionableConditionQ), (22 bytes).
    Removing minimal.o(i.SCPI_Stub), (4 bytes).
    Removing parser.o(i.ParamSignUInt64), (84 bytes).
    Removing parser.o(i.SCPI_CmdTag), (10 bytes).
    Removing parser.o(i.SCPI_IsCmd), (38 bytes).
    Removing parser.o(i.SCPI_Match), (14 bytes).
    Removing parser.o(i.SCPI_ParamArrayDouble), (56 bytes).
    Removing parser.o(i.SCPI_ParamArrayFloat), (56 bytes).
    Removing parser.o(i.SCPI_ParamArrayInt32), (56 bytes).
    Removing parser.o(i.SCPI_ParamArrayInt64), (56 bytes).
    Removing parser.o(i.SCPI_ParamArrayUInt32), (56 bytes).
    Removing parser.o(i.SCPI_ParamArrayUInt64), (56 bytes).
    Removing parser.o(i.SCPI_ParamCharacters), (72 bytes).
    Removing parser.o(i.SCPI_ParamErrorOccurred), (6 bytes).
    Removing parser.o(i.SCPI_ParamInt64), (6 bytes).
    Removing parser.o(i.SCPI_ParamIsValid), (14 bytes).
    Removing parser.o(i.SCPI_ParamToInt64), (6 bytes).
    Removing parser.o(i.SCPI_ParamUInt64), (6 bytes).
    Removing parser.o(i.SCPI_ResultArrayDouble), (60 bytes).
    Removing parser.o(i.SCPI_ResultArrayFloat), (56 bytes).
    Removing parser.o(i.SCPI_ResultArrayInt16), (56 bytes).
    Removing parser.o(i.SCPI_ResultArrayInt32), (56 bytes).
    Removing parser.o(i.SCPI_ResultArrayInt64), (60 bytes).
    Removing parser.o(i.SCPI_ResultArrayInt8), (52 bytes).
    Removing parser.o(i.SCPI_ResultArrayUInt16), (58 bytes).
    Removing parser.o(i.SCPI_ResultArrayUInt32), (58 bytes).
    Removing parser.o(i.SCPI_ResultArrayUInt64), (62 bytes).
    Removing parser.o(i.SCPI_ResultArrayUInt8), (54 bytes).
    Removing parser.o(i.SCPI_ResultBool), (8 bytes).
    Removing parser.o(i.SCPI_ResultInt64), (16 bytes).
    Removing parser.o(i.SCPI_ResultText), (136 bytes).
    Removing parser.o(i.SCPI_ResultUInt32Base), (6 bytes).
    Removing parser.o(i.SCPI_ResultUInt64Base), (16 bytes).
    Removing parser.o(i.produceResultArrayBinary), (248 bytes).
    Removing parser.o(i.resultUInt64BaseSign), (82 bytes).
    Removing utils.o(i.SCPI_GetNativeFormat), (16 bytes).
    Removing utils.o(i.SCPI_Int32ToStr), (14 bytes).
    Removing utils.o(i.SCPI_Int64ToStr), (16 bytes).
    Removing utils.o(i.SCPI_Swap16), (4 bytes).
    Removing utils.o(i.SCPI_Swap32), (4 bytes).
    Removing utils.o(i.SCPI_Swap64), (8 bytes).
    Removing utils.o(i.SCPI_UInt64ToStrBase), (16 bytes).
    Removing utils.o(i.SCPI_dtostre), (400 bytes).
    Removing utils.o(i.UInt64ToStrBaseSign), (296 bytes).
    Removing utils.o(i.__ARM_isnan), (24 bytes).
    Removing utils.o(i.scpi_ecvt), (468 bytes).
    Removing utils.o(.constdata), (4 bytes).
    Removing dfixi.o(.text), (62 bytes).

535 unused section(s) (total 21988 bytes) removed from the image.

==============================================================================

Image Symbol Table

    Local Symbols

    Symbol Name                              Value     Ov Type        Size  Object(Section)

    ../clib/../cmprslib/zerorunl2.c          0x00000000   Number         0  __dczerorl2.o ABSOLUTE
    ../clib/microlib/ctype/ctype.c           0x00000000   Number         0  islower_o.o ABSOLUTE
    ../clib/microlib/ctype/ctype.c           0x00000000   Number         0  isupper_o.o ABSOLUTE
    ../clib/microlib/ctype/ctype.c           0x00000000   Number         0  isxdigit_o.o ABSOLUTE
    ../clib/microlib/ctype/ctype.c           0x00000000   Number         0  isalpha_o.o ABSOLUTE
    ../clib/microlib/ctype/ctype.c           0x00000000   Number         0  isblank_o.o ABSOLUTE
    ../clib/microlib/ctype/ctype.c           0x00000000   Number         0  iscntrl_o.o ABSOLUTE
    ../clib/microlib/ctype/ctype.c           0x00000000   Number         0  isdigit_o.o ABSOLUTE
    ../clib/microlib/ctype/ctype.c           0x00000000   Number         0  ispunct_o.o ABSOLUTE
    ../clib/microlib/ctype/ctype.c           0x00000000   Number         0  isgraph_o.o ABSOLUTE
    ../clib/microlib/ctype/ctype.c           0x00000000   Number         0  isprint_o.o ABSOLUTE
    ../clib/microlib/ctype/ctype.c           0x00000000   Number         0  isalnum_o.o ABSOLUTE
    ../clib/microlib/ctype/ctype.c           0x00000000   Number         0  ctype_o.o ABSOLUTE
    ../clib/microlib/ctype/ctype.c           0x00000000   Number         0  isspace_o.o ABSOLUTE
    ../clib/microlib/ctype/ctype.c           0x00000000   Number         0  ctype_c.o ABSOLUTE
    ../clib/microlib/ctype/ctype.c           0x00000000   Number         0  isspace_c.o ABSOLUTE
    ../clib/microlib/ctype/tolower.c         0x00000000   Number         0  tolower.o ABSOLUTE
    ../clib/microlib/division.c              0x00000000   Number         0  uldiv.o ABSOLUTE
    ../clib/microlib/division.c              0x00000000   Number         0  uidiv.o ABSOLUTE
    ../clib/microlib/errno.c                 0x00000000   Number         0  errno.o ABSOLUTE
    ../clib/microlib/init/entry.s            0x00000000   Number         0  entry11a.o ABSOLUTE
    ../clib/microlib/init/entry.s            0x00000000   Number         0  entry2.o ABSOLUTE
    ../clib/microlib/init/entry.s            0x00000000   Number         0  entry11b.o ABSOLUTE
    ../clib/microlib/init/entry.s            0x00000000   Number         0  entry7b.o ABSOLUTE
    ../clib/microlib/init/entry.s            0x00000000   Number         0  entry5.o ABSOLUTE
    ../clib/microlib/init/entry.s            0x00000000   Number         0  entry9b.o ABSOLUTE
    ../clib/microlib/init/entry.s            0x00000000   Number         0  entry7a.o ABSOLUTE
    ../clib/microlib/init/entry.s            0x00000000   Number         0  entry10b.o ABSOLUTE
    ../clib/microlib/init/entry.s            0x00000000   Number         0  entry8a.o ABSOLUTE
    ../clib/microlib/init/entry.s            0x00000000   Number         0  entry8b.o ABSOLUTE
    ../clib/microlib/init/entry.s            0x00000000   Number         0  entry9a.o ABSOLUTE
    ../clib/microlib/init/entry.s            0x00000000   Number         0  entry10a.o ABSOLUTE
    ../clib/microlib/init/entry.s            0x00000000   Number         0  entry.o ABSOLUTE
    ../clib/microlib/longlong.c              0x00000000   Number         0  llsshr.o ABSOLUTE
    ../clib/microlib/longlong.c              0x00000000   Number         0  llshl.o ABSOLUTE
    ../clib/microlib/longlong.c              0x00000000   Number         0  llushr.o ABSOLUTE
    ../clib/microlib/printf/printf.c         0x00000000   Number         0  printf2.o ABSOLUTE
    ../clib/microlib/printf/printf.c         0x00000000   Number         0  printf8.o ABSOLUTE
    ../clib/microlib/printf/printf.c         0x00000000   Number         0  printf1.o ABSOLUTE
    ../clib/microlib/printf/printf.c         0x00000000   Number         0  printf7.o ABSOLUTE
    ../clib/microlib/printf/printf.c         0x00000000   Number         0  printf0.o ABSOLUTE
    ../clib/microlib/printf/printf.c         0x00000000   Number         0  printfb.o ABSOLUTE
    ../clib/microlib/printf/printf.c         0x00000000   Number         0  printfa.o ABSOLUTE
    ../clib/microlib/printf/printf.c         0x00000000   Number         0  printf3.o ABSOLUTE
    ../clib/microlib/printf/printf.c         0x00000000   Number         0  printf4.o ABSOLUTE
    ../clib/microlib/printf/printf.c         0x00000000   Number         0  printf5.o ABSOLUTE
    ../clib/microlib/printf/printf.c         0x00000000   Number         0  printf6.o ABSOLUTE
    ../clib/microlib/printf/stubs.s          0x00000000   Number         0  stubs.o ABSOLUTE
    ../clib/microlib/string/memcpy.c         0x00000000   Number         0  memmoveb.o ABSOLUTE
    ../clib/microlib/string/memcpy.c         0x00000000   Number         0  memcpyb.o ABSOLUTE
    ../clib/microlib/string/memcpy.c         0x00000000   Number         0  memcpya.o ABSOLUTE
    ../clib/microlib/string/memcpy.c         0x00000000   Number         0  memmovea.o ABSOLUTE
    ../clib/microlib/string/memset.c         0x00000000   Number         0  memseta.o ABSOLUTE
    ../clib/microlib/string/strcpy.c         0x00000000   Number         0  strcpy.o ABSOLUTE
    ../clib/microlib/string/strlen.c         0x00000000   Number         0  strlen.o ABSOLUTE
    ../clib/microlib/string/strncasecmp.c    0x00000000   Number         0  strncasecmp.o ABSOLUTE
    ../clib/microlib/string/strncat.c        0x00000000   Number         0  strncat.o ABSOLUTE
    ../clib/microlib/string/strncpy.c        0x00000000   Number         0  strncpy.o ABSOLUTE
    ../clib/microlib/stubs.s                 0x00000000   Number         0  iusefp.o ABSOLUTE
    ../clib/microlib/stubs.s                 0x00000000   Number         0  useno.o ABSOLUTE
    ../clib/scanf.c                          0x00000000   Number         0  _sgetc.o ABSOLUTE
    ../clib/scanf.c                          0x00000000   Number         0  scanf_fp.o ABSOLUTE
    ../clib/scanf.c                          0x00000000   Number         0  _chval.o ABSOLUTE
    ../clib/scanf.c                          0x00000000   Number         0  __strtoull.o ABSOLUTE
    ../clib/scanf.c                          0x00000000   Number         0  __strtoll.o ABSOLUTE
    ../clib/scanf.c                          0x00000000   Number         0  strtof.o ABSOLUTE
    ../clib/scanf.c                          0x00000000   Number         0  strtod.o ABSOLUTE
    ../clib/scanf.c                          0x00000000   Number         0  _strtoul.o ABSOLUTE
    ../clib/scanf.c                          0x00000000   Number         0  strtoul.o ABSOLUTE
    ../clib/scanf.c                          0x00000000   Number         0  strtol.o ABSOLUTE
    ../clib/scanf.c                          0x00000000   Number         0  strtoll.o ABSOLUTE
    ../clib/scanf.c                          0x00000000   Number         0  strtoull.o ABSOLUTE
    ../clib/scanf.c                          0x00000000   Number         0  _strtoull.o ABSOLUTE
    ../fplib/microlib/d2f.c                  0x00000000   Number         0  d2f.o ABSOLUTE
    ../fplib/microlib/f2d.c                  0x00000000   Number         0  f2d.o ABSOLUTE
    ../fplib/microlib/fpadd.c                0x00000000   Number         0  dadd.o ABSOLUTE
    ../fplib/microlib/fpadd.c                0x00000000   Number         0  fadd.o ABSOLUTE
    ../fplib/microlib/fpdiv.c                0x00000000   Number         0  fdiv.o ABSOLUTE
    ../fplib/microlib/fpdiv.c                0x00000000   Number         0  ddiv.o ABSOLUTE
    ../fplib/microlib/fpepilogue.c           0x00000000   Number         0  depilogue.o ABSOLUTE
    ../fplib/microlib/fpepilogue.c           0x00000000   Number         0  fepilogue.o ABSOLUTE
    ../fplib/microlib/fpfix.c                0x00000000   Number         0  dfixul.o ABSOLUTE
    ../fplib/microlib/fpfix.c                0x00000000   Number         0  dfixi.o ABSOLUTE
    ../fplib/microlib/fpfix.c                0x00000000   Number         0  ffixui.o ABSOLUTE
    ../fplib/microlib/fpflt.c                0x00000000   Number         0  ffltui.o ABSOLUTE
    ../fplib/microlib/fpflt.c                0x00000000   Number         0  dfltul.o ABSOLUTE
    ../fplib/microlib/fpmul.c                0x00000000   Number         0  dmul.o ABSOLUTE
    ../fplib/microlib/fpmul.c                0x00000000   Number         0  fmul.o ABSOLUTE
    ../fplib/microlib/fpscalb.c              0x00000000   Number         0  dscalb.o ABSOLUTE
    ../fplib/microlib/fpstat.c               0x00000000   Number         0  fpstat.o ABSOLUTE
    ../mathlib/frexp.c                       0x00000000   Number         0  frexp.o ABSOLUTE
    ../mathlib/modf.c                        0x00000000   Number         0  modf.o ABSOLUTE
    ../mathlib/narrow.c                      0x00000000   Number         0  narrow.o ABSOLUTE
    ../mathlib/strtod.c                      0x00000000   Number         0  strtod.o ABSOLUTE
    ../mathlib/strtof.c                      0x00000000   Number         0  strtof.o ABSOLUTE
    ..\Libraries\CMSIS\src\core_cm3.c        0x00000000   Number         0  core_cm3.o ABSOLUTE
    ..\Libraries\CMSIS\src\startup_stm32f10x_hd.s 0x00000000   Number         0  startup_stm32f10x_hd.o ABSOLUTE
    ..\Libraries\FWlib\src\misc.c            0x00000000   Number         0  misc.o ABSOLUTE
    ..\Libraries\FWlib\src\stm32f10x_adc.c   0x00000000   Number         0  stm32f10x_adc.o ABSOLUTE
    ..\Libraries\FWlib\src\stm32f10x_bkp.c   0x00000000   Number         0  stm32f10x_bkp.o ABSOLUTE
    ..\Libraries\FWlib\src\stm32f10x_can.c   0x00000000   Number         0  stm32f10x_can.o ABSOLUTE
    ..\Libraries\FWlib\src\stm32f10x_cec.c   0x00000000   Number         0  stm32f10x_cec.o ABSOLUTE
    ..\Libraries\FWlib\src\stm32f10x_crc.c   0x00000000   Number         0  stm32f10x_crc.o ABSOLUTE
    ..\Libraries\FWlib\src\stm32f10x_dac.c   0x00000000   Number         0  stm32f10x_dac.o ABSOLUTE
    ..\Libraries\FWlib\src\stm32f10x_dbgmcu.c 0x00000000   Number         0  stm32f10x_dbgmcu.o ABSOLUTE
    ..\Libraries\FWlib\src\stm32f10x_dma.c   0x00000000   Number         0  stm32f10x_dma.o ABSOLUTE
    ..\Libraries\FWlib\src\stm32f10x_exti.c  0x00000000   Number         0  stm32f10x_exti.o ABSOLUTE
    ..\Libraries\FWlib\src\stm32f10x_flash.c 0x00000000   Number         0  stm32f10x_flash.o ABSOLUTE
    ..\Libraries\FWlib\src\stm32f10x_fsmc.c  0x00000000   Number         0  stm32f10x_fsmc.o ABSOLUTE
    ..\Libraries\FWlib\src\stm32f10x_gpio.c  0x00000000   Number         0  stm32f10x_gpio.o ABSOLUTE
    ..\Libraries\FWlib\src\stm32f10x_i2c.c   0x00000000   Number         0  stm32f10x_i2c.o ABSOLUTE
    ..\Libraries\FWlib\src\stm32f10x_iwdg.c  0x00000000   Number         0  stm32f10x_iwdg.o ABSOLUTE
    ..\Libraries\FWlib\src\stm32f10x_pwr.c   0x00000000   Number         0  stm32f10x_pwr.o ABSOLUTE
    ..\Libraries\FWlib\src\stm32f10x_rcc.c   0x00000000   Number         0  stm32f10x_rcc.o ABSOLUTE
    ..\Libraries\FWlib\src\stm32f10x_rtc.c   0x00000000   Number         0  stm32f10x_rtc.o ABSOLUTE
    ..\Libraries\FWlib\src\stm32f10x_sdio.c  0x00000000   Number         0  stm32f10x_sdio.o ABSOLUTE
    ..\Libraries\FWlib\src\stm32f10x_spi.c   0x00000000   Number         0  stm32f10x_spi.o ABSOLUTE
    ..\Libraries\FWlib\src\stm32f10x_tim.c   0x00000000   Number         0  stm32f10x_tim.o ABSOLUTE
    ..\Libraries\FWlib\src\stm32f10x_usart.c 0x00000000   Number         0  stm32f10x_usart.o ABSOLUTE
    ..\Libraries\FWlib\src\stm32f10x_wwdg.c  0x00000000   Number         0  stm32f10x_wwdg.o ABSOLUTE
    ..\User\main.c                           0x00000000   Number         0  main.o ABSOLUTE
    ..\User\scpi-def.c                       0x00000000   Number         0  scpi-def.o ABSOLUTE
    ..\User\stm32f10x_it.c                   0x00000000   Number         0  stm32f10x_it.o ABSOLUTE
    ..\User\system_stm32f10x.c               0x00000000   Number         0  system_stm32f10x.o ABSOLUTE
    ..\\Libraries\\CMSIS\\src\\core_cm3.c    0x00000000   Number         0  core_cm3.o ABSOLUTE
    ..\\User\\main.c                         0x00000000   Number         0  main.o ABSOLUTE
    ..\drive\AD7689.c                        0x00000000   Number         0  ad7689.o ABSOLUTE
    ..\drive\AT24C01.c                       0x00000000   Number         0  at24c01.o ABSOLUTE
    ..\drive\BEEP.c                          0x00000000   Number         0  beep.o ABSOLUTE
    ..\drive\DAC.c                           0x00000000   Number         0  dac.o ABSOLUTE
    ..\drive\FAN_PRO.c                       0x00000000   Number         0  fan_pro.o ABSOLUTE
    ..\drive\GPIO.c                          0x00000000   Number         0  gpio.o ABSOLUTE
    ..\drive\IIC_24C01.c                     0x00000000   Number         0  iic_24c01.o ABSOLUTE
    ..\drive\Menu.c                          0x00000000   Number         0  menu.o ABSOLUTE
    ..\drive\Slave_Usart.c                   0x00000000   Number         0  slave_usart.o ABSOLUTE
    ..\drive\TIM6.c                          0x00000000   Number         0  tim6.o ABSOLUTE
    ..\drive\adc.c                           0x00000000   Number         0  adc.o ABSOLUTE
    ..\drive\bsp_SysTick.c                   0x00000000   Number         0  bsp_systick.o ABSOLUTE
    ..\drive\clock.c                         0x00000000   Number         0  clock.o ABSOLUTE
    ..\drive\flash.c                         0x00000000   Number         0  flash.o ABSOLUTE
    ..\drive\iwdg.c                          0x00000000   Number         0  iwdg.o ABSOLUTE
    ..\drive\key.c                           0x00000000   Number         0  key.o ABSOLUTE
    ..\drive\modbus.c                        0x00000000   Number         0  modbus.o ABSOLUTE
    ..\drive\usart.c                         0x00000000   Number         0  usart.o ABSOLUTE
    ..\libscpi\src\error.c                   0x00000000   Number         0  error.o ABSOLUTE
    ..\libscpi\src\expression.c              0x00000000   Number         0  expression.o ABSOLUTE
    ..\libscpi\src\fifo.c                    0x00000000   Number         0  fifo.o ABSOLUTE
    ..\libscpi\src\ieee488.c                 0x00000000   Number         0  ieee488.o ABSOLUTE
    ..\libscpi\src\lexer.c                   0x00000000   Number         0  lexer.o ABSOLUTE
    ..\libscpi\src\minimal.c                 0x00000000   Number         0  minimal.o ABSOLUTE
    ..\libscpi\src\parser.c                  0x00000000   Number         0  parser.o ABSOLUTE
    ..\libscpi\src\units.c                   0x00000000   Number         0  units.o ABSOLUTE
    ..\libscpi\src\utils.c                   0x00000000   Number         0  utils.o ABSOLUTE
    cdcmple.s                                0x00000000   Number         0  cdcmple.o ABSOLUTE
    cdrcmple.s                               0x00000000   Number         0  cdrcmple.o ABSOLUTE
    cfrcmple.s                               0x00000000   Number         0  cfrcmple.o ABSOLUTE
    dc.s                                     0x00000000   Number         0  dc.o ABSOLUTE
    handlers.s                               0x00000000   Number         0  handlers.o ABSOLUTE
    init.s                                   0x00000000   Number         0  init.o ABSOLUTE
    RESET                                    0x08010000   Section      304  startup_stm32f10x_hd.o(RESET)
    .ARM.Collect$$$$00000000                 0x08010130   Section        0  entry.o(.ARM.Collect$$$$00000000)
    .ARM.Collect$$$$00000001                 0x08010130   Section        4  entry2.o(.ARM.Collect$$$$00000001)
    .ARM.Collect$$$$00000004                 0x08010134   Section        4  entry5.o(.ARM.Collect$$$$00000004)
    .ARM.Collect$$$$00000008                 0x08010138   Section        0  entry7b.o(.ARM.Collect$$$$00000008)
    .ARM.Collect$$$$0000000A                 0x08010138   Section        0  entry8b.o(.ARM.Collect$$$$0000000A)
    .ARM.Collect$$$$0000000B                 0x08010138   Section        8  entry9a.o(.ARM.Collect$$$$0000000B)
    .ARM.Collect$$$$0000000D                 0x08010140   Section        0  entry10a.o(.ARM.Collect$$$$0000000D)
    .ARM.Collect$$$$0000000F                 0x08010140   Section        0  entry11a.o(.ARM.Collect$$$$0000000F)
    .ARM.Collect$$$$00002712                 0x08010140   Section        4  entry2.o(.ARM.Collect$$$$00002712)
    __lit__00000000                          0x08010140   Data           4  entry2.o(.ARM.Collect$$$$00002712)
    .emb_text                                0x08010144   Section        6  main.o(.emb_text)
    .text                                    0x0801014c   Section       36  startup_stm32f10x_hd.o(.text)
    .text                                    0x08010170   Section        0  uldiv.o(.text)
    .text                                    0x080101d4   Section        0  ctype_o.o(.text)
    .text                                    0x080101dc   Section        0  isspace_o.o(.text)
    .text                                    0x080101ee   Section        0  memmovea.o(.text)
    .text                                    0x0801022e   Section        0  memseta.o(.text)
    .text                                    0x08010252   Section        0  strncpy.o(.text)
    .text                                    0x0801026a   Section        0  strlen.o(.text)
    .text                                    0x08010278   Section        0  strncat.o(.text)
    .text                                    0x080102a0   Section        0  strncasecmp.o(.text)
    .text                                    0x080102d2   Section        0  strtol.o(.text)
    .text                                    0x08010342   Section        0  strtoul.o(.text)
    .text                                    0x080103b4   Section        0  strtoll.o(.text)
    .text                                    0x080103b8   Section        0  strtoull.o(.text)
    .text                                    0x080103bc   Section        0  fadd.o(.text)
    .text                                    0x0801046c   Section        0  fmul.o(.text)
    .text                                    0x080104d0   Section        0  fdiv.o(.text)
    .text                                    0x0801054c   Section        0  dadd.o(.text)
    .text                                    0x0801069a   Section        0  dmul.o(.text)
    .text                                    0x0801077e   Section        0  ddiv.o(.text)
    .text                                    0x0801085c   Section        0  ffltui.o(.text)
    .text                                    0x08010866   Section        0  dfltul.o(.text)
    .text                                    0x0801087e   Section        0  ffixui.o(.text)
    .text                                    0x080108a6   Section        0  f2d.o(.text)
    .text                                    0x080108cc   Section       48  cdcmple.o(.text)
    .text                                    0x080108fc   Section       48  cdrcmple.o(.text)
    .text                                    0x0801092c   Section       20  cfrcmple.o(.text)
    .text                                    0x08010940   Section        0  uidiv.o(.text)
    .text                                    0x0801096c   Section        0  llshl.o(.text)
    .text                                    0x0801098a   Section        0  llushr.o(.text)
    .text                                    0x080109aa   Section        0  llsshr.o(.text)
    .text                                    0x080109ce   Section        0  tolower.o(.text)
    .text                                    0x080109da   Section        0  _strtoul.o(.text)
    .text                                    0x08010a78   Section        0  strtod.o(.text)
    _local_sscanf                            0x08010a79   Thumb Code    54  strtod.o(.text)
    .text                                    0x08010b14   Section        0  strtof.o(.text)
    .text                                    0x08010b2e   Section        0  __strtoll.o(.text)
    .text                                    0x08010bbe   Section        0  __strtoull.o(.text)
    .text                                    0x08010c3a   Section        0  fepilogue.o(.text)
    .text                                    0x08010c3a   Section        0  iusefp.o(.text)
    .text                                    0x08010ca8   Section        0  depilogue.o(.text)
    .text                                    0x08010d62   Section        0  dscalb.o(.text)
    .text                                    0x08010d90   Section        0  dfixul.o(.text)
    .text                                    0x08010dc0   Section       36  init.o(.text)
    .text                                    0x08010de4   Section        0  _chval.o(.text)
    .text                                    0x08010e00   Section        0  scanf_fp.o(.text)
    _fp_value                                0x08010e01   Thumb Code   296  scanf_fp.o(.text)
    .text                                    0x08011160   Section        0  _sgetc.o(.text)
    .text                                    0x080111a0   Section        0  _strtoull.o(.text)
    .text                                    0x08011262   Section        0  d2f.o(.text)
    .text                                    0x0801129a   Section        0  fpstat.o(.text)
    .text                                    0x0801129e   Section        0  __dczerorl2.o(.text)
    i.AD5541_GPIOCoing                       0x080112f4   Section        0  dac.o(i.AD5541_GPIOCoing)
    i.AD5541_Send                            0x08011318   Section        0  dac.o(i.AD5541_Send)
    i.AD7689_Delay                           0x080113d0   Section        0  ad7689.o(i.AD7689_Delay)
    i.AD7689_InitializeSPI2                  0x080113f0   Section        0  ad7689.o(i.AD7689_InitializeSPI2)
    i.AD7689_Scan_CH                         0x080114b4   Section        0  ad7689.o(i.AD7689_Scan_CH)
    i.AD7689_TransferByte                    0x080115e8   Section        0  ad7689.o(i.AD7689_TransferByte)
    i.ADC1_DMA_Init                          0x08011624   Section        0  adc.o(i.ADC1_DMA_Init)
    i.ADC_CH_Scan                            0x08011744   Section        0  adc.o(i.ADC_CH_Scan)
    i.ADC_Cmd                                0x08011814   Section        0  stm32f10x_adc.o(i.ADC_Cmd)
    i.ADC_DMACmd                             0x08011828   Section        0  stm32f10x_adc.o(i.ADC_DMACmd)
    i.ADC_DeInit                             0x0801183c   Section        0  stm32f10x_adc.o(i.ADC_DeInit)
    i.ADC_GetCalibrationStatus               0x08011880   Section        0  stm32f10x_adc.o(i.ADC_GetCalibrationStatus)
    i.ADC_GetResetCalibrationStatus          0x0801188e   Section        0  stm32f10x_adc.o(i.ADC_GetResetCalibrationStatus)
    i.ADC_Init                               0x0801189c   Section        0  stm32f10x_adc.o(i.ADC_Init)
    i.ADC_RegularChannelConfig               0x080118e4   Section        0  stm32f10x_adc.o(i.ADC_RegularChannelConfig)
    i.ADC_ResetCalibration                   0x08011958   Section        0  stm32f10x_adc.o(i.ADC_ResetCalibration)
    i.ADC_SoftwareStartConvCmd               0x08011962   Section        0  stm32f10x_adc.o(i.ADC_SoftwareStartConvCmd)
    i.ADC_StartCalibration                   0x08011976   Section        0  stm32f10x_adc.o(i.ADC_StartCalibration)
    i.All_protect                            0x08011980   Section        0  fan_pro.o(i.All_protect)
    i.BSD_strnlen                            0x08011b48   Section        0  utils.o(i.BSD_strnlen)
    i.Baud_SET                               0x08011b60   Section        0  usart.o(i.Baud_SET)
    i.Bias_Correction                        0x08011bb0   Section        0  modbus.o(i.Bias_Correction)
    Bias_Correction                          0x08011bb1   Thumb Code   160  modbus.o(i.Bias_Correction)
    i.Bias_Para                              0x08011c58   Section        0  modbus.o(i.Bias_Para)
    Bias_Para                                0x08011c59   Thumb Code    58  modbus.o(i.Bias_Para)
    i.BusFault_Handler                       0x08011c9c   Section        0  stm32f10x_it.o(i.BusFault_Handler)
    i.CCQ                                    0x08011ca0   Section        0  scpi-def.o(i.CCQ)
    CCQ                                      0x08011ca1   Thumb Code    30  scpi-def.o(i.CCQ)
    i.CCSET                                  0x08011cc8   Section        0  scpi-def.o(i.CCSET)
    CCSET                                    0x08011cc9   Thumb Code    50  scpi-def.o(i.CCSET)
    i.CPQ                                    0x08011d08   Section        0  scpi-def.o(i.CPQ)
    CPQ                                      0x08011d09   Thumb Code    30  scpi-def.o(i.CPQ)
    i.CPROTECTQ                              0x08011d30   Section        0  scpi-def.o(i.CPROTECTQ)
    CPROTECTQ                                0x08011d31   Thumb Code    30  scpi-def.o(i.CPROTECTQ)
    i.CPROTECTSET                            0x08011d58   Section        0  scpi-def.o(i.CPROTECTSET)
    CPROTECTSET                              0x08011d59   Thumb Code    50  scpi-def.o(i.CPROTECTSET)
    i.CPSET                                  0x08011d98   Section        0  scpi-def.o(i.CPSET)
    CPSET                                    0x08011d99   Thumb Code    50  scpi-def.o(i.CPSET)
    i.CRQ                                    0x08011dd8   Section        0  scpi-def.o(i.CRQ)
    CRQ                                      0x08011dd9   Thumb Code    30  scpi-def.o(i.CRQ)
    i.CRSET                                  0x08011e00   Section        0  scpi-def.o(i.CRSET)
    CRSET                                    0x08011e01   Thumb Code    50  scpi-def.o(i.CRSET)
    i.CURRENTQ                               0x08011e40   Section        0  scpi-def.o(i.CURRENTQ)
    CURRENTQ                                 0x08011e41   Thumb Code    44  scpi-def.o(i.CURRENTQ)
    i.CVQ                                    0x08011e78   Section        0  scpi-def.o(i.CVQ)
    CVQ                                      0x08011e79   Thumb Code    30  scpi-def.o(i.CVQ)
    i.CVSET                                  0x08011ea0   Section        0  scpi-def.o(i.CVSET)
    CVSET                                    0x08011ea1   Thumb Code    50  scpi-def.o(i.CVSET)
    i.Cont_coeff_LEDMODE                     0x08011ee0   Section        0  menu.o(i.Cont_coeff_LEDMODE)
    i.DAM1_ADC_NVIC                          0x08011f7c   Section        0  adc.o(i.DAM1_ADC_NVIC)
    i.DMA1_Channel1_IRQHandler               0x08011f9c   Section        0  stm32f10x_it.o(i.DMA1_Channel1_IRQHandler)
    i.DMA1_Channel2_IRQHandler               0x08011fb0   Section        0  stm32f10x_it.o(i.DMA1_Channel2_IRQHandler)
    i.DMA_ClearITPendingBit                  0x08011fc8   Section        0  stm32f10x_dma.o(i.DMA_ClearITPendingBit)
    i.DMA_Cmd                                0x08011fe0   Section        0  stm32f10x_dma.o(i.DMA_Cmd)
    i.DMA_DeInit                             0x08011ff8   Section        0  stm32f10x_dma.o(i.DMA_DeInit)
    i.DMA_ITConfig                           0x080120dc   Section        0  stm32f10x_dma.o(i.DMA_ITConfig)
    i.DMA_Init                               0x080120ec   Section        0  stm32f10x_dma.o(i.DMA_Init)
    i.DMM_ConfigureVoltageDc                 0x08012126   Section        0  scpi-def.o(i.DMM_ConfigureVoltageDc)
    DMM_ConfigureVoltageDc                   0x08012127   Thumb Code    36  scpi-def.o(i.DMM_ConfigureVoltageDc)
    i.DMM_MeasureVoltageAcQ                  0x0801214c   Section        0  scpi-def.o(i.DMM_MeasureVoltageAcQ)
    DMM_MeasureVoltageAcQ                    0x0801214d   Thumb Code    74  scpi-def.o(i.DMM_MeasureVoltageAcQ)
    i.DYNHDQ                                 0x0801219c   Section        0  scpi-def.o(i.DYNHDQ)
    DYNHDQ                                   0x0801219d   Thumb Code    32  scpi-def.o(i.DYNHDQ)
    i.DYNHDSET                               0x080121c4   Section        0  scpi-def.o(i.DYNHDSET)
    DYNHDSET                                 0x080121c5   Thumb Code    52  scpi-def.o(i.DYNHDSET)
    i.DYNHQ                                  0x08012204   Section        0  scpi-def.o(i.DYNHQ)
    DYNHQ                                    0x08012205   Thumb Code    32  scpi-def.o(i.DYNHQ)
    i.DYNHSET                                0x0801222c   Section        0  scpi-def.o(i.DYNHSET)
    DYNHSET                                  0x0801222d   Thumb Code    52  scpi-def.o(i.DYNHSET)
    i.DYNLDQ                                 0x0801226c   Section        0  scpi-def.o(i.DYNLDQ)
    DYNLDQ                                   0x0801226d   Thumb Code    32  scpi-def.o(i.DYNLDQ)
    i.DYNLDSET                               0x08012294   Section        0  scpi-def.o(i.DYNLDSET)
    DYNLDSET                                 0x08012295   Thumb Code    52  scpi-def.o(i.DYNLDSET)
    i.DYNLQ                                  0x080122d4   Section        0  scpi-def.o(i.DYNLQ)
    DYNLQ                                    0x080122d5   Thumb Code    32  scpi-def.o(i.DYNLQ)
    i.DYNLSET                                0x080122fc   Section        0  scpi-def.o(i.DYNLSET)
    DYNLSET                                  0x080122fd   Thumb Code    52  scpi-def.o(i.DYNLSET)
    i.DYNMODEQ                               0x0801233c   Section        0  scpi-def.o(i.DYNMODEQ)
    DYNMODEQ                                 0x0801233d   Thumb Code    32  scpi-def.o(i.DYNMODEQ)
    i.DYNMODESET                             0x08012364   Section        0  scpi-def.o(i.DYNMODESET)
    DYNMODESET                               0x08012365   Thumb Code    44  scpi-def.o(i.DYNMODESET)
    i.DYNSLEWFQ                              0x0801239c   Section        0  scpi-def.o(i.DYNSLEWFQ)
    DYNSLEWFQ                                0x0801239d   Thumb Code    32  scpi-def.o(i.DYNSLEWFQ)
    i.DYNSLEWFSET                            0x080123c4   Section        0  scpi-def.o(i.DYNSLEWFSET)
    DYNSLEWFSET                              0x080123c5   Thumb Code    52  scpi-def.o(i.DYNSLEWFSET)
    i.DYNSLEWQ                               0x08012404   Section        0  scpi-def.o(i.DYNSLEWQ)
    DYNSLEWQ                                 0x08012405   Thumb Code    32  scpi-def.o(i.DYNSLEWQ)
    i.DYNSLEWRQ                              0x0801242c   Section        0  scpi-def.o(i.DYNSLEWRQ)
    DYNSLEWRQ                                0x0801242d   Thumb Code    32  scpi-def.o(i.DYNSLEWRQ)
    i.DYNSLEWRSET                            0x08012454   Section        0  scpi-def.o(i.DYNSLEWRSET)
    DYNSLEWRSET                              0x08012455   Thumb Code    52  scpi-def.o(i.DYNSLEWRSET)
    i.DYNSLEWSET                             0x08012494   Section        0  scpi-def.o(i.DYNSLEWSET)
    DYNSLEWSET                               0x08012495   Thumb Code    54  scpi-def.o(i.DYNSLEWSET)
    i.DebugMon_Handler                       0x080124d8   Section        0  stm32f10x_it.o(i.DebugMon_Handler)
    i.EEPROM_READ_Byte                       0x080124dc   Section        0  at24c01.o(i.EEPROM_READ_Byte)
    i.EEPROM_READ_Coeff                      0x0801252c   Section        0  flash.o(i.EEPROM_READ_Coeff)
    i.EEPROM_WriteByte                       0x080132a0   Section        0  at24c01.o(i.EEPROM_WriteByte)
    i.FLASH_PrefetchBufferCmd                0x0801330c   Section        0  stm32f10x_flash.o(i.FLASH_PrefetchBufferCmd)
    i.FLASH_SetLatency                       0x08013324   Section        0  stm32f10x_flash.o(i.FLASH_SetLatency)
    i.Flash_Write_all                        0x08013338   Section        0  flash.o(i.Flash_Write_all)
    i.GPIO_AFIODeInit                        0x08014116   Section        0  stm32f10x_gpio.o(i.GPIO_AFIODeInit)
    i.GPIO_Conf                              0x0801412c   Section        0  gpio.o(i.GPIO_Conf)
    i.GPIO_DeInit                            0x080141c8   Section        0  stm32f10x_gpio.o(i.GPIO_DeInit)
    i.GPIO_Init                              0x0801427c   Section        0  stm32f10x_gpio.o(i.GPIO_Init)
    i.GPIO_PinRemapConfig                    0x08014320   Section        0  stm32f10x_gpio.o(i.GPIO_PinRemapConfig)
    i.GPIO_ReadInputDataBit                  0x08014378   Section        0  stm32f10x_gpio.o(i.GPIO_ReadInputDataBit)
    i.GPIO_ResetBits                         0x08014386   Section        0  stm32f10x_gpio.o(i.GPIO_ResetBits)
    i.GPIO_SetBits                           0x0801438a   Section        0  stm32f10x_gpio.o(i.GPIO_SetBits)
    i.HardFault_Handler                      0x0801438e   Section        0  stm32f10x_it.o(i.HardFault_Handler)
    i.Hardware_CRC                           0x08014390   Section        0  modbus.o(i.Hardware_CRC)
    i.INPUTQ                                 0x0801440c   Section        0  scpi-def.o(i.INPUTQ)
    INPUTQ                                   0x0801440d   Thumb Code    24  scpi-def.o(i.INPUTQ)
    i.INPUTSET                               0x08014428   Section        0  scpi-def.o(i.INPUTSET)
    INPUTSET                                 0x08014429   Thumb Code    40  scpi-def.o(i.INPUTSET)
    i.IRANGEQ                                0x08014458   Section        0  scpi-def.o(i.IRANGEQ)
    IRANGEQ                                  0x08014459   Thumb Code    24  scpi-def.o(i.IRANGEQ)
    i.IRANGESET                              0x08014474   Section        0  scpi-def.o(i.IRANGESET)
    IRANGESET                                0x08014475   Thumb Code    40  scpi-def.o(i.IRANGESET)
    i.ISLEWFQ                                0x080144a4   Section        0  scpi-def.o(i.ISLEWFQ)
    ISLEWFQ                                  0x080144a5   Thumb Code    32  scpi-def.o(i.ISLEWFQ)
    i.ISLEWFSET                              0x080144cc   Section        0  scpi-def.o(i.ISLEWFSET)
    ISLEWFSET                                0x080144cd   Thumb Code    52  scpi-def.o(i.ISLEWFSET)
    i.ISLEWQ                                 0x0801450c   Section        0  scpi-def.o(i.ISLEWQ)
    ISLEWQ                                   0x0801450d   Thumb Code    30  scpi-def.o(i.ISLEWQ)
    i.ISLEWRQ                                0x08014534   Section        0  scpi-def.o(i.ISLEWRQ)
    ISLEWRQ                                  0x08014535   Thumb Code    30  scpi-def.o(i.ISLEWRQ)
    i.ISLEWRSET                              0x0801455c   Section        0  scpi-def.o(i.ISLEWRSET)
    ISLEWRSET                                0x0801455d   Thumb Code    50  scpi-def.o(i.ISLEWRSET)
    i.ISLEWSET                               0x0801459c   Section        0  scpi-def.o(i.ISLEWSET)
    ISLEWSET                                 0x0801459d   Thumb Code    54  scpi-def.o(i.ISLEWSET)
    i.IWDG_Enable                            0x080145e0   Section        0  stm32f10x_iwdg.o(i.IWDG_Enable)
    i.IWDG_Inte                              0x080145f0   Section        0  iwdg.o(i.IWDG_Inte)
    i.IWDG_ReloadCounter                     0x08014614   Section        0  stm32f10x_iwdg.o(i.IWDG_ReloadCounter)
    i.IWDG_SetPrescaler                      0x08014624   Section        0  stm32f10x_iwdg.o(i.IWDG_SetPrescaler)
    i.IWDG_SetReload                         0x08014630   Section        0  stm32f10x_iwdg.o(i.IWDG_SetReload)
    i.IWDG_WriteAccessCmd                    0x0801463c   Section        0  stm32f10x_iwdg.o(i.IWDG_WriteAccessCmd)
    i.I_SW_COTNR                             0x08014648   Section        0  menu.o(i.I_SW_COTNR)
    i.MODEQ                                  0x080146e8   Section        0  scpi-def.o(i.MODEQ)
    MODEQ                                    0x080146e9   Thumb Code    30  scpi-def.o(i.MODEQ)
    i.MODESET                                0x08014710   Section        0  scpi-def.o(i.MODESET)
    MODESET                                  0x08014711   Thumb Code    42  scpi-def.o(i.MODESET)
    i.MemManage_Handler                      0x08014748   Section        0  stm32f10x_it.o(i.MemManage_Handler)
    i.My_CoreTstQ                            0x0801474a   Section        0  scpi-def.o(i.My_CoreTstQ)
    My_CoreTstQ                              0x0801474b   Thumb Code    12  scpi-def.o(i.My_CoreTstQ)
    i.NMI_Handler                            0x08014756   Section        0  stm32f10x_it.o(i.NMI_Handler)
    i.NVIC_Init                              0x08014758   Section        0  misc.o(i.NVIC_Init)
    i.NVIC_PriorityGroupConfig               0x080147bc   Section        0  misc.o(i.NVIC_PriorityGroupConfig)
    i.NVIC_SetVectorTable                    0x080147d0   Section        0  misc.o(i.NVIC_SetVectorTable)
    i.POWERQ                                 0x080147e4   Section        0  scpi-def.o(i.POWERQ)
    POWERQ                                   0x080147e5   Thumb Code    30  scpi-def.o(i.POWERQ)
    i.PPROTECTQ                              0x0801480c   Section        0  scpi-def.o(i.PPROTECTQ)
    PPROTECTQ                                0x0801480d   Thumb Code    30  scpi-def.o(i.PPROTECTQ)
    i.PPROTECTSET                            0x08014834   Section        0  scpi-def.o(i.PPROTECTSET)
    PPROTECTSET                              0x08014835   Thumb Code    50  scpi-def.o(i.PPROTECTSET)
    i.ParamSignToUInt32                      0x08014874   Section        0  parser.o(i.ParamSignToUInt32)
    ParamSignToUInt32                        0x08014875   Thumb Code    82  parser.o(i.ParamSignToUInt32)
    i.ParamSignToUInt64                      0x080148cc   Section        0  parser.o(i.ParamSignToUInt64)
    ParamSignToUInt64                        0x080148cd   Thumb Code    82  parser.o(i.ParamSignToUInt64)
    i.ParamSignUInt32                        0x08014924   Section        0  parser.o(i.ParamSignUInt32)
    ParamSignUInt32                          0x08014925   Thumb Code    78  parser.o(i.ParamSignUInt32)
    i.RCC_ADCCLKConfig                       0x08014978   Section        0  stm32f10x_rcc.o(i.RCC_ADCCLKConfig)
    i.RCC_AHBPeriphClockCmd                  0x0801498c   Section        0  stm32f10x_rcc.o(i.RCC_AHBPeriphClockCmd)
    i.RCC_APB1PeriphClockCmd                 0x080149a4   Section        0  stm32f10x_rcc.o(i.RCC_APB1PeriphClockCmd)
    i.RCC_APB2PeriphClockCmd                 0x080149bc   Section        0  stm32f10x_rcc.o(i.RCC_APB2PeriphClockCmd)
    i.RCC_APB2PeriphResetCmd                 0x080149d4   Section        0  stm32f10x_rcc.o(i.RCC_APB2PeriphResetCmd)
    i.RCC_Configuration                      0x080149ec   Section        0  clock.o(i.RCC_Configuration)
    i.RCC_DeInit                             0x08014a58   Section        0  stm32f10x_rcc.o(i.RCC_DeInit)
    i.RCC_GetClocksFreq                      0x08014a98   Section        0  stm32f10x_rcc.o(i.RCC_GetClocksFreq)
    i.RCC_GetFlagStatus                      0x08014b28   Section        0  stm32f10x_rcc.o(i.RCC_GetFlagStatus)
    i.RCC_GetSYSCLKSource                    0x08014b58   Section        0  stm32f10x_rcc.o(i.RCC_GetSYSCLKSource)
    i.RCC_HCLKConfig                         0x08014b68   Section        0  stm32f10x_rcc.o(i.RCC_HCLKConfig)
    i.RCC_HSEConfig                          0x08014b7c   Section        0  stm32f10x_rcc.o(i.RCC_HSEConfig)
    i.RCC_PCLK1Config                        0x08014bb0   Section        0  stm32f10x_rcc.o(i.RCC_PCLK1Config)
    i.RCC_PCLK2Config                        0x08014bc4   Section        0  stm32f10x_rcc.o(i.RCC_PCLK2Config)
    i.RCC_PLLCmd                             0x08014bd8   Section        0  stm32f10x_rcc.o(i.RCC_PLLCmd)
    i.RCC_PLLConfig                          0x08014be4   Section        0  stm32f10x_rcc.o(i.RCC_PLLConfig)
    i.RCC_SYSCLKConfig                       0x08014bf8   Section        0  stm32f10x_rcc.o(i.RCC_SYSCLKConfig)
    i.RCC_WaitForHSEStartUp                  0x08014c0c   Section        0  stm32f10x_rcc.o(i.RCC_WaitForHSEStartUp)
    i.REMOTEQ                                0x08014c38   Section        0  scpi-def.o(i.REMOTEQ)
    REMOTEQ                                  0x08014c39   Thumb Code    24  scpi-def.o(i.REMOTEQ)
    i.REMOTESET                              0x08014c54   Section        0  scpi-def.o(i.REMOTESET)
    REMOTESET                                0x08014c55   Thumb Code    40  scpi-def.o(i.REMOTESET)
    i.RESQ                                   0x08014c84   Section        0  scpi-def.o(i.RESQ)
    RESQ                                     0x08014c85   Thumb Code    30  scpi-def.o(i.RESQ)
    i.SCPI_ChoiceToName                      0x08014cac   Section        0  parser.o(i.SCPI_ChoiceToName)
    i.SCPI_CommandNumbers                    0x08014cd6   Section        0  parser.o(i.SCPI_CommandNumbers)
    i.SCPI_CoreCls                           0x08014cee   Section        0  ieee488.o(i.SCPI_CoreCls)
    i.SCPI_CoreEse                           0x08014d14   Section        0  ieee488.o(i.SCPI_CoreEse)
    i.SCPI_CoreEseQ                          0x08014d38   Section        0  ieee488.o(i.SCPI_CoreEseQ)
    i.SCPI_CoreEsrQ                          0x08014d4e   Section        0  ieee488.o(i.SCPI_CoreEsrQ)
    i.SCPI_CoreIdnQ                          0x08014d70   Section        0  ieee488.o(i.SCPI_CoreIdnQ)
    i.SCPI_CoreOpc                           0x08014da8   Section        0  ieee488.o(i.SCPI_CoreOpc)
    i.SCPI_CoreOpcQ                          0x08014db6   Section        0  ieee488.o(i.SCPI_CoreOpcQ)
    i.SCPI_CoreRst                           0x08014dc2   Section        0  ieee488.o(i.SCPI_CoreRst)
    i.SCPI_CoreSre                           0x08014dd2   Section        0  ieee488.o(i.SCPI_CoreSre)
    i.SCPI_CoreSreQ                          0x08014df6   Section        0  ieee488.o(i.SCPI_CoreSreQ)
    i.SCPI_CoreStbQ                          0x08014e0c   Section        0  ieee488.o(i.SCPI_CoreStbQ)
    i.SCPI_CoreWai                           0x08014e22   Section        0  ieee488.o(i.SCPI_CoreWai)
    i.SCPI_DoubleToStr                       0x08014e28   Section        0  utils.o(i.SCPI_DoubleToStr)
    i.SCPI_ErrorClear                        0x08014e4c   Section        0  error.o(i.SCPI_ErrorClear)
    i.SCPI_ErrorCount                        0x08014e60   Section        0  error.o(i.SCPI_ErrorCount)
    i.SCPI_ErrorEmit                         0x08014e76   Section        0  error.o(i.SCPI_ErrorEmit)
    SCPI_ErrorEmit                           0x08014e77   Thumb Code    38  error.o(i.SCPI_ErrorEmit)
    i.SCPI_ErrorEmitEmpty                    0x08014e9c   Section        0  error.o(i.SCPI_ErrorEmitEmpty)
    SCPI_ErrorEmitEmpty                      0x08014e9d   Thumb Code    58  error.o(i.SCPI_ErrorEmitEmpty)
    i.SCPI_ErrorInit                         0x08014ed6   Section        0  error.o(i.SCPI_ErrorInit)
    i.SCPI_ErrorPop                          0x08014edc   Section        0  error.o(i.SCPI_ErrorPop)
    i.SCPI_ErrorPush                         0x08014efe   Section        0  error.o(i.SCPI_ErrorPush)
    i.SCPI_ErrorPushEx                       0x08014f08   Section        0  error.o(i.SCPI_ErrorPushEx)
    i.SCPI_ErrorTranslate                    0x08014fb4   Section        0  error.o(i.SCPI_ErrorTranslate)
    i.SCPI_EventClear                        0x0801519c   Section        0  ieee488.o(i.SCPI_EventClear)
    i.SCPI_ExprChannelListEntry              0x080151a4   Section        0  expression.o(i.SCPI_ExprChannelListEntry)
    i.SCPI_FloatToStr                        0x0801527c   Section        0  utils.o(i.SCPI_FloatToStr)
    i.SCPI_Init                              0x080152a4   Section        0  parser.o(i.SCPI_Init)
    i.SCPI_Input                             0x080152f2   Section        0  parser.o(i.SCPI_Input)
    i.SCPI_NumberToStr                       0x080153a0   Section        0  units.o(i.SCPI_NumberToStr)
    i.SCPI_ParamArbitraryBlock               0x0801546c   Section        0  parser.o(i.SCPI_ParamArbitraryBlock)
    i.SCPI_ParamBool                         0x080154b0   Section        0  parser.o(i.SCPI_ParamBool)
    i.SCPI_ParamChoice                       0x08015508   Section        0  parser.o(i.SCPI_ParamChoice)
    i.SCPI_ParamCopyText                     0x0801553c   Section        0  parser.o(i.SCPI_ParamCopyText)
    i.SCPI_ParamDouble                       0x080155b8   Section        0  parser.o(i.SCPI_ParamDouble)
    i.SCPI_ParamFloat                        0x08015610   Section        0  parser.o(i.SCPI_ParamFloat)
    i.SCPI_ParamInt32                        0x08015668   Section        0  parser.o(i.SCPI_ParamInt32)
    i.SCPI_ParamIsNumber                     0x0801566e   Section        0  parser.o(i.SCPI_ParamIsNumber)
    i.SCPI_ParamNumber                       0x0801568c   Section        0  units.o(i.SCPI_ParamNumber)
    i.SCPI_ParamToChoice                     0x08015778   Section        0  parser.o(i.SCPI_ParamToChoice)
    i.SCPI_ParamToDouble                     0x080157f4   Section        0  parser.o(i.SCPI_ParamToDouble)
    i.SCPI_ParamToFloat                      0x08015844   Section        0  parser.o(i.SCPI_ParamToFloat)
    i.SCPI_ParamToInt32                      0x08015890   Section        0  parser.o(i.SCPI_ParamToInt32)
    i.SCPI_ParamToUInt32                     0x08015896   Section        0  parser.o(i.SCPI_ParamToUInt32)
    i.SCPI_ParamToUInt64                     0x0801589c   Section        0  parser.o(i.SCPI_ParamToUInt64)
    i.SCPI_ParamUInt32                       0x080158a2   Section        0  parser.o(i.SCPI_ParamUInt32)
    i.SCPI_Parameter                         0x080158a8   Section        0  parser.o(i.SCPI_Parameter)
    i.SCPI_Parse                             0x08015944   Section        0  parser.o(i.SCPI_Parse)
    i.SCPI_RegClearBits                      0x08015a5c   Section        0  ieee488.o(i.SCPI_RegClearBits)
    i.SCPI_RegGet                            0x08015a76   Section        0  ieee488.o(i.SCPI_RegGet)
    i.SCPI_RegSet                            0x08015a8a   Section        0  ieee488.o(i.SCPI_RegSet)
    i.SCPI_RegSetBits                        0x08015b4c   Section        0  ieee488.o(i.SCPI_RegSetBits)
    i.SCPI_ResultArbitraryBlock              0x08015b64   Section        0  parser.o(i.SCPI_ResultArbitraryBlock)
    i.SCPI_ResultArbitraryBlockData          0x08015b88   Section        0  parser.o(i.SCPI_ResultArbitraryBlockData)
    i.SCPI_ResultArbitraryBlockHeader        0x08015bb8   Section        0  parser.o(i.SCPI_ResultArbitraryBlockHeader)
    i.SCPI_ResultCharacters                  0x08015bf0   Section        0  parser.o(i.SCPI_ResultCharacters)
    i.SCPI_ResultDouble                      0x08015c16   Section        0  parser.o(i.SCPI_ResultDouble)
    i.SCPI_ResultError                       0x08015c4c   Section        0  parser.o(i.SCPI_ResultError)
    i.SCPI_ResultFloat                       0x08015d3c   Section        0  parser.o(i.SCPI_ResultFloat)
    i.SCPI_ResultInt32                       0x08015d6e   Section        0  parser.o(i.SCPI_ResultInt32)
    i.SCPI_StatusPreset                      0x08015d76   Section        0  minimal.o(i.SCPI_StatusPreset)
    i.SCPI_StatusQuestionableEnable          0x08015d84   Section        0  minimal.o(i.SCPI_StatusQuestionableEnable)
    i.SCPI_StatusQuestionableEnableQ         0x08015da2   Section        0  minimal.o(i.SCPI_StatusQuestionableEnableQ)
    i.SCPI_StatusQuestionableEventQ          0x08015db8   Section        0  minimal.o(i.SCPI_StatusQuestionableEventQ)
    i.SCPI_StubQ                             0x08015dd8   Section        0  minimal.o(i.SCPI_StubQ)
    i.SCPI_SystemErrorCountQ                 0x08015de4   Section        0  minimal.o(i.SCPI_SystemErrorCountQ)
    i.SCPI_SystemErrorNextQ                  0x08015df8   Section        0  minimal.o(i.SCPI_SystemErrorNextQ)
    i.SCPI_SystemVersionQ                    0x08015e10   Section        0  minimal.o(i.SCPI_SystemVersionQ)
    i.SCPI_UInt32ToStrBase                   0x08015e28   Section        0  utils.o(i.SCPI_UInt32ToStrBase)
    i.SCPI_Write                             0x08015e34   Section        0  main.o(i.SCPI_Write)
    i.SPI_AD7689_Read                        0x08015e68   Section        0  ad7689.o(i.SPI_AD7689_Read)
    i.SPI_Cmd                                0x08015ed0   Section        0  stm32f10x_spi.o(i.SPI_Cmd)
    i.SPI_I2S_GetFlagStatus                  0x08015ee4   Section        0  stm32f10x_spi.o(i.SPI_I2S_GetFlagStatus)
    i.SPI_I2S_ReceiveData                    0x08015ef2   Section        0  stm32f10x_spi.o(i.SPI_I2S_ReceiveData)
    i.SPI_I2S_SendData                       0x08015ef6   Section        0  stm32f10x_spi.o(i.SPI_I2S_SendData)
    i.SPI_Init                               0x08015efa   Section        0  stm32f10x_spi.o(i.SPI_Init)
    i.SVC_Handler                            0x08015f32   Section        0  stm32f10x_it.o(i.SVC_Handler)
    i.Sence_SW_CONT                          0x08015f34   Section        0  menu.o(i.Sence_SW_CONT)
    i.SetSysClockTo72                        0x08015f54   Section        0  system_stm32f10x.o(i.SetSysClockTo72)
    SetSysClockTo72                          0x08015f55   Thumb Code   160  system_stm32f10x.o(i.SetSysClockTo72)
    i.SysTick_Handler                        0x08015ffc   Section        0  stm32f10x_it.o(i.SysTick_Handler)
    i.SysTick_Init                           0x08016034   Section        0  bsp_systick.o(i.SysTick_Init)
    i.SystemInit                             0x08016078   Section        0  system_stm32f10x.o(i.SystemInit)
    i.TEST_ArbQ                              0x080160cc   Section        0  scpi-def.o(i.TEST_ArbQ)
    TEST_ArbQ                                0x080160cd   Thumb Code    30  scpi-def.o(i.TEST_ArbQ)
    i.TEST_Bool                              0x080160ea   Section        0  scpi-def.o(i.TEST_Bool)
    TEST_Bool                                0x080160eb   Thumb Code    22  scpi-def.o(i.TEST_Bool)
    i.TEST_Chanlst                           0x08016100   Section        0  scpi-def.o(i.TEST_Chanlst)
    TEST_Chanlst                             0x08016101   Thumb Code   330  scpi-def.o(i.TEST_Chanlst)
    i.TEST_ChoiceQ                           0x0801624c   Section        0  scpi-def.o(i.TEST_ChoiceQ)
    TEST_ChoiceQ                             0x0801624d   Thumb Code    44  scpi-def.o(i.TEST_ChoiceQ)
    i.TEST_Numbers                           0x0801627c   Section        0  scpi-def.o(i.TEST_Numbers)
    TEST_Numbers                             0x0801627d   Thumb Code    16  scpi-def.o(i.TEST_Numbers)
    i.TEST_Text                              0x0801628c   Section        0  scpi-def.o(i.TEST_Text)
    TEST_Text                                0x0801628d   Thumb Code    30  scpi-def.o(i.TEST_Text)
    i.TIM4_IRQHandler                        0x080162ac   Section        0  stm32f10x_it.o(i.TIM4_IRQHandler)
    i.TIM6_Config                            0x08016338   Section        0  tim6.o(i.TIM6_Config)
    i.TIM_ClearITPendingBit                  0x08016394   Section        0  stm32f10x_tim.o(i.TIM_ClearITPendingBit)
    i.TIM_Cmd                                0x0801639a   Section        0  stm32f10x_tim.o(i.TIM_Cmd)
    i.TIM_ITConfig                           0x080163ae   Section        0  stm32f10x_tim.o(i.TIM_ITConfig)
    i.TIM_TimeBaseInit                       0x080163c0   Section        0  stm32f10x_tim.o(i.TIM_TimeBaseInit)
    i.Temp_Comapre                           0x0801645c   Section        0  fan_pro.o(i.Temp_Comapre)
    i.TimingDelay_Decrement                  0x080164a8   Section        0  bsp_systick.o(i.TimingDelay_Decrement)
    i.Transformation_ADC                     0x080164bc   Section        0  modbus.o(i.Transformation_ADC)
    i.UART1_Action                           0x080173f4   Section        0  modbus.o(i.UART1_Action)
    i.UART1_Send                             0x080177c0   Section        0  usart.o(i.UART1_Send)
    i.UART2_Send                             0x0801781c   Section        0  usart.o(i.UART2_Send)
    i.UART3_Action                           0x08017878   Section        0  modbus.o(i.UART3_Action)
    i.UART3_Send                             0x08017c44   Section        0  usart.o(i.UART3_Send)
    i.UART_Action                            0x08017ca0   Section        0  modbus.o(i.UART_Action)
    i.UInt32ToStrBaseSign                    0x08019214   Section        0  utils.o(i.UInt32ToStrBaseSign)
    i.USART1_IRQHandler                      0x080192dc   Section        0  stm32f10x_it.o(i.USART1_IRQHandler)
    i.USART1_NVIC_Config                     0x08019458   Section        0  usart.o(i.USART1_NVIC_Config)
    USART1_NVIC_Config                       0x08019459   Thumb Code    92  usart.o(i.USART1_NVIC_Config)
    i.USART2_Configuration                   0x080194b4   Section        0  usart.o(i.USART2_Configuration)
    i.USART2_IRQHandler                      0x08019548   Section        0  stm32f10x_it.o(i.USART2_IRQHandler)
    i.USART3_Configuration                   0x08019654   Section        0  usart.o(i.USART3_Configuration)
    i.USART3_IRQHandler                      0x080196ec   Section        0  stm32f10x_it.o(i.USART3_IRQHandler)
    i.USART_ClearFlag                        0x08019808   Section        0  stm32f10x_usart.o(i.USART_ClearFlag)
    i.USART_ClearITPendingBit                0x0801980e   Section        0  stm32f10x_usart.o(i.USART_ClearITPendingBit)
    i.USART_Cmd                              0x0801981a   Section        0  stm32f10x_usart.o(i.USART_Cmd)
    i.USART_Configuration                    0x08019830   Section        0  usart.o(i.USART_Configuration)
    i.USART_GetFlagStatus                    0x080198d8   Section        0  stm32f10x_usart.o(i.USART_GetFlagStatus)
    i.USART_GetITStatus                      0x080198e6   Section        0  stm32f10x_usart.o(i.USART_GetITStatus)
    i.USART_ITConfig                         0x08019924   Section        0  stm32f10x_usart.o(i.USART_ITConfig)
    i.USART_Init                             0x08019954   Section        0  stm32f10x_usart.o(i.USART_Init)
    i.USART_ReceiveData                      0x08019a00   Section        0  stm32f10x_usart.o(i.USART_ReceiveData)
    i.USART_SendData                         0x08019a08   Section        0  stm32f10x_usart.o(i.USART_SendData)
    i.UsageFault_Handler                     0x08019a10   Section        0  stm32f10x_it.o(i.UsageFault_Handler)
    i.VOFFQ                                  0x08019a14   Section        0  scpi-def.o(i.VOFFQ)
    VOFFQ                                    0x08019a15   Thumb Code    30  scpi-def.o(i.VOFFQ)
    i.VOFFSET                                0x08019a3c   Section        0  scpi-def.o(i.VOFFSET)
    VOFFSET                                  0x08019a3d   Thumb Code    50  scpi-def.o(i.VOFFSET)
    i.VOLTAGEQ                               0x08019a7c   Section        0  scpi-def.o(i.VOLTAGEQ)
    VOLTAGEQ                                 0x08019a7d   Thumb Code    44  scpi-def.o(i.VOLTAGEQ)
    i.VONQ                                   0x08019ab4   Section        0  scpi-def.o(i.VONQ)
    VONQ                                     0x08019ab5   Thumb Code    30  scpi-def.o(i.VONQ)
    i.VONSET                                 0x08019adc   Section        0  scpi-def.o(i.VONSET)
    VONSET                                   0x08019add   Thumb Code    50  scpi-def.o(i.VONSET)
    i.VPROTECTQ                              0x08019b1c   Section        0  scpi-def.o(i.VPROTECTQ)
    VPROTECTQ                                0x08019b1d   Thumb Code    30  scpi-def.o(i.VPROTECTQ)
    i.VPROTECTSET                            0x08019b44   Section        0  scpi-def.o(i.VPROTECTSET)
    VPROTECTSET                              0x08019b45   Thumb Code    50  scpi-def.o(i.VPROTECTSET)
    i.VRANGEQ                                0x08019b84   Section        0  scpi-def.o(i.VRANGEQ)
    VRANGEQ                                  0x08019b85   Thumb Code    24  scpi-def.o(i.VRANGEQ)
    i.VRANGESET                              0x08019ba0   Section        0  scpi-def.o(i.VRANGESET)
    VRANGESET                                0x08019ba1   Thumb Code    40  scpi-def.o(i.VRANGESET)
    i.V_SW_COTNR                             0x08019bd0   Section        0  menu.o(i.V_SW_COTNR)
    i.Write_ADDR                             0x08019c28   Section        0  flash.o(i.Write_ADDR)
    i.Write_bootflag                         0x08019c74   Section        0  flash.o(i.Write_bootflag)
    i.Write_bootmode                         0x08019c84   Section        0  flash.o(i.Write_bootmode)
    i.__0snprintf                            0x08019c98   Section        0  printfa.o(i.__0snprintf)
    i.__aeabi_errno_addr                     0x08019cc8   Section        0  errno.o(i.__aeabi_errno_addr)
    i.__mathlib_narrow                       0x08019cd0   Section        0  narrow.o(i.__mathlib_narrow)
    i.__mathlib_tofloat                      0x08019ce0   Section        0  narrow.o(i.__mathlib_tofloat)
    i.__scatterload_copy                     0x08019d9c   Section       14  handlers.o(i.__scatterload_copy)
    i.__scatterload_null                     0x08019daa   Section        2  handlers.o(i.__scatterload_null)
    i.__scatterload_zeroinit                 0x08019dac   Section       14  handlers.o(i.__scatterload_zeroinit)
    i.__set_errno                            0x08019dbc   Section        0  errno.o(i.__set_errno)
    i._fp_digits                             0x08019dc8   Section        0  printfa.o(i._fp_digits)
    _fp_digits                               0x08019dc9   Thumb Code   366  printfa.o(i._fp_digits)
    i._is_digit                              0x08019f4c   Section        0  scanf_fp.o(i._is_digit)
    i._printf_core                           0x08019f5c   Section        0  printfa.o(i._printf_core)
    _printf_core                             0x08019f5d   Thumb Code  1744  printfa.o(i._printf_core)
    i._printf_post_padding                   0x0801a638   Section        0  printfa.o(i._printf_post_padding)
    _printf_post_padding                     0x0801a639   Thumb Code    36  printfa.o(i._printf_post_padding)
    i._printf_pre_padding                    0x0801a65c   Section        0  printfa.o(i._printf_pre_padding)
    _printf_pre_padding                      0x0801a65d   Thumb Code    46  printfa.o(i._printf_pre_padding)
    i._snputc                                0x0801a68a   Section        0  printfa.o(i._snputc)
    _snputc                                  0x0801a68b   Thumb Code    22  printfa.o(i._snputc)
    i.channelRange                           0x0801a6a0   Section        0  expression.o(i.channelRange)
    channelRange                             0x0801a6a1   Thumb Code   108  expression.o(i.channelRange)
    i.channelSpec                            0x0801a70c   Section        0  expression.o(i.channelSpec)
    channelSpec                              0x0801a70d   Thumb Code    76  expression.o(i.channelSpec)
    i.compareStr                             0x0801a758   Section        0  utils.o(i.compareStr)
    i.compareStrAndNum                       0x0801a772   Section        0  utils.o(i.compareStrAndNum)
    i.composeCompoundCommand                 0x0801a7d6   Section        0  utils.o(i.composeCompoundCommand)
    i.fifo_add                               0x0801a822   Section        0  fifo.o(i.fifo_add)
    i.fifo_clear                             0x0801a860   Section        0  fifo.o(i.fifo_clear)
    i.fifo_count                             0x0801a86a   Section        0  fifo.o(i.fifo_count)
    i.fifo_init                              0x0801a872   Section        0  fifo.o(i.fifo_init)
    i.fifo_is_empty                          0x0801a880   Section        0  fifo.o(i.fifo_is_empty)
    i.fifo_is_full                           0x0801a88c   Section        0  fifo.o(i.fifo_is_full)
    i.fifo_remove                            0x0801a8a0   Section        0  fifo.o(i.fifo_remove)
    i.fifo_remove_last                       0x0801a8dc   Section        0  fifo.o(i.fifo_remove_last)
    i.frexp                                  0x0801a918   Section        0  frexp.o(i.frexp)
    i.getBasePrefix                          0x0801a970   Section        0  parser.o(i.getBasePrefix)
    getBasePrefix                            0x0801a971   Thumb Code    28  parser.o(i.getBasePrefix)
    i.i2c_CfgGpio                            0x0801a998   Section        0  iic_24c01.o(i.i2c_CfgGpio)
    i.i2c_Delay                              0x0801a9e0   Section        0  iic_24c01.o(i.i2c_Delay)
    i2c_Delay                                0x0801a9e1   Thumb Code    26  iic_24c01.o(i.i2c_Delay)
    i.i2c_NAck                               0x0801a9fc   Section        0  iic_24c01.o(i.i2c_NAck)
    i.i2c_ReadByte                           0x0801aa34   Section        0  iic_24c01.o(i.i2c_ReadByte)
    i.i2c_SendByte                           0x0801aa98   Section        0  iic_24c01.o(i.i2c_SendByte)
    i.i2c_Start                              0x0801ab10   Section        0  iic_24c01.o(i.i2c_Start)
    i.i2c_Stop                               0x0801ab50   Section        0  iic_24c01.o(i.i2c_Stop)
    i.i2c_WaitAck                            0x0801ab7c   Section        0  iic_24c01.o(i.i2c_WaitAck)
    i.iap_load_app                           0x0801abc4   Section        0  main.o(i.iap_load_app)
    i.invalidateToken                        0x0801abf0   Section        0  parser.o(i.invalidateToken)
    invalidateToken                          0x0801abf1   Thumb Code    12  parser.o(i.invalidateToken)
    i.ischr                                  0x0801abfc   Section        0  lexer.o(i.ischr)
    ischr                                    0x0801abfd   Thumb Code    16  lexer.o(i.ischr)
    i.iseos                                  0x0801ac0c   Section        0  lexer.o(i.iseos)
    iseos                                    0x0801ac0d   Thumb Code    20  lexer.o(i.iseos)
    i.main                                   0x0801ac20   Section        0  main.o(i.main)
    i.matchCommand                           0x0801ad5c   Section        0  utils.o(i.matchCommand)
    i.matchPattern                           0x0801af44   Section        0  utils.o(i.matchPattern)
    i.patternSeparatorPos                    0x0801afb8   Section        0  utils.o(i.patternSeparatorPos)
    patternSeparatorPos                      0x0801afb9   Thumb Code    22  utils.o(i.patternSeparatorPos)
    i.patternSeparatorShortPos               0x0801afd8   Section        0  utils.o(i.patternSeparatorShortPos)
    patternSeparatorShortPos                 0x0801afd9   Thumb Code    42  utils.o(i.patternSeparatorShortPos)
    i.processCommand                         0x0801b002   Section        0  parser.o(i.processCommand)
    processCommand                           0x0801b003   Thumb Code   102  parser.o(i.processCommand)
    i.regUpdate                              0x0801b068   Section        0  ieee488.o(i.regUpdate)
    regUpdate                                0x0801b069   Thumb Code    24  ieee488.o(i.regUpdate)
    i.regUpdateEvent                         0x0801b080   Section        0  ieee488.o(i.regUpdateEvent)
    regUpdateEvent                           0x0801b081   Thumb Code    28  ieee488.o(i.regUpdateEvent)
    i.regUpdateSTB                           0x0801b09c   Section        0  ieee488.o(i.regUpdateSTB)
    regUpdateSTB                             0x0801b09d   Thumb Code    42  ieee488.o(i.regUpdateSTB)
    i.resultUInt32BaseSign                   0x0801b0c6   Section        0  parser.o(i.resultUInt32BaseSign)
    resultUInt32BaseSign                     0x0801b0c7   Thumb Code    78  parser.o(i.resultUInt32BaseSign)
    i.scpiLex_ArbitraryBlockProgramData      0x0801b114   Section        0  lexer.o(i.scpiLex_ArbitraryBlockProgramData)
    i.scpiLex_CharacterProgramData           0x0801b1e2   Section        0  lexer.o(i.scpiLex_CharacterProgramData)
    i.scpiLex_Colon                          0x0801b24a   Section        0  lexer.o(i.scpiLex_Colon)
    i.scpiLex_Comma                          0x0801b26e   Section        0  lexer.o(i.scpiLex_Comma)
    i.scpiLex_DecimalNumericProgramData      0x0801b292   Section        0  lexer.o(i.scpiLex_DecimalNumericProgramData)
    i.scpiLex_IsEos                          0x0801b310   Section        0  lexer.o(i.scpiLex_IsEos)
    i.scpiLex_NewLine                        0x0801b314   Section        0  lexer.o(i.scpiLex_NewLine)
    i.scpiLex_NondecimalNumericData          0x0801b34e   Section        0  lexer.o(i.scpiLex_NondecimalNumericData)
    i.scpiLex_ProgramExpression              0x0801b448   Section        0  lexer.o(i.scpiLex_ProgramExpression)
    i.scpiLex_ProgramHeader                  0x0801b4d6   Section        0  lexer.o(i.scpiLex_ProgramHeader)
    i.scpiLex_Semicolon                      0x0801b596   Section        0  lexer.o(i.scpiLex_Semicolon)
    i.scpiLex_SpecificCharacter              0x0801b5b8   Section        0  lexer.o(i.scpiLex_SpecificCharacter)
    i.scpiLex_StringProgramData              0x0801b5dc   Section        0  lexer.o(i.scpiLex_StringProgramData)
    i.scpiLex_SuffixProgramData              0x0801b664   Section        0  lexer.o(i.scpiLex_SuffixProgramData)
    i.scpiLex_WhiteSpace                     0x0801b6dc   Section        0  lexer.o(i.scpiLex_WhiteSpace)
    i.scpiParser_detectProgramMessageUnit    0x0801b704   Section        0  parser.o(i.scpiParser_detectProgramMessageUnit)
    i.scpiParser_parseAllProgramData         0x0801b7ba   Section        0  parser.o(i.scpiParser_parseAllProgramData)
    i.scpiParser_parseProgramData            0x0801b82c   Section        0  parser.o(i.scpiParser_parseProgramData)
    i.skipAlpha                              0x0801b8b8   Section        0  lexer.o(i.skipAlpha)
    skipAlpha                                0x0801b8b9   Thumb Code    44  lexer.o(i.skipAlpha)
    i.skipChr                                0x0801b8e4   Section        0  lexer.o(i.skipChr)
    skipChr                                  0x0801b8e5   Thumb Code    36  lexer.o(i.skipChr)
    i.skipColon                              0x0801b908   Section        0  lexer.o(i.skipColon)
    skipColon                                0x0801b909   Thumb Code    34  lexer.o(i.skipColon)
    i.skipDigit                              0x0801b92a   Section        0  lexer.o(i.skipDigit)
    skipDigit                                0x0801b92b   Thumb Code    38  lexer.o(i.skipDigit)
    i.skipNumbers                            0x0801b950   Section        0  lexer.o(i.skipNumbers)
    skipNumbers                              0x0801b951   Thumb Code    42  lexer.o(i.skipNumbers)
    i.skipPlusmn                             0x0801b97a   Section        0  lexer.o(i.skipPlusmn)
    skipPlusmn                               0x0801b97b   Thumb Code    34  lexer.o(i.skipPlusmn)
    i.skipProgramMnemonic                    0x0801b99c   Section        0  lexer.o(i.skipProgramMnemonic)
    skipProgramMnemonic                      0x0801b99d   Thumb Code    96  lexer.o(i.skipProgramMnemonic)
    i.skipQuoteProgramData                   0x0801b9fc   Section        0  lexer.o(i.skipQuoteProgramData)
    skipQuoteProgramData                     0x0801b9fd   Thumb Code    82  lexer.o(i.skipQuoteProgramData)
    i.skipWhitespace                         0x0801ba50   Section        0  utils.o(i.skipWhitespace)
    i.skipWs                                 0x0801ba78   Section        0  lexer.o(i.skipWs)
    skipWs                                   0x0801ba79   Thumb Code    38  lexer.o(i.skipWs)
    i.strBaseToInt32                         0x0801ba9e   Section        0  utils.o(i.strBaseToInt32)
    i.strBaseToInt64                         0x0801bab2   Section        0  utils.o(i.strBaseToInt64)
    i.strBaseToUInt32                        0x0801bac8   Section        0  utils.o(i.strBaseToUInt32)
    i.strBaseToUInt64                        0x0801badc   Section        0  utils.o(i.strBaseToUInt64)
    i.strToDouble                            0x0801baf2   Section        0  utils.o(i.strToDouble)
    i.strToFloat                             0x0801bb08   Section        0  utils.o(i.strToFloat)
    i.strnpbrk                               0x0801bb1c   Section        0  utils.o(i.strnpbrk)
    i.strtod                                 0x0801bb46   Section        0  strtod.o(i.strtod)
    i.strtof                                 0x0801bb62   Section        0  strtof.o(i.strtof)
    i.transformNumber                        0x0801bb76   Section        0  units.o(i.transformNumber)
    transformNumber                          0x0801bb77   Thumb Code   124  units.o(i.transformNumber)
    i.worke_mode                             0x0801bbf4   Section        0  menu.o(i.worke_mode)
    i.writeData                              0x0801bf94   Section        0  parser.o(i.writeData)
    writeData                                0x0801bf95   Thumb Code    12  parser.o(i.writeData)
    i.writeDelimiter                         0x0801bfa0   Section        0  parser.o(i.writeDelimiter)
    writeDelimiter                           0x0801bfa1   Thumb Code    18  parser.o(i.writeDelimiter)
    i.writeSemicolon                         0x0801bfb8   Section        0  parser.o(i.writeSemicolon)
    writeSemicolon                           0x0801bfb9   Thumb Code    18  parser.o(i.writeSemicolon)
    .constdata                               0x0801bfd0   Section        5  scpi-def.o(.constdata)
    Respond                                  0x0801bfd0   Data           5  scpi-def.o(.constdata)
    .constdata                               0x0801bfd8   Section     1164  scpi-def.o(.constdata)
    .constdata                               0x0801c464   Section       54  error.o(.constdata)
    errs                                     0x0801c464   Data          54  error.o(.constdata)
    .constdata                               0x0801c49c   Section       36  parser.o(.constdata)
    .constdata                               0x0801c4c0   Section      432  units.o(.constdata)
    .constdata                               0x0801c670   Section       80  units.o(.constdata)
    .constdata                               0x0801c6c0   Section      129  ctype_o.o(.constdata)
    .constdata                               0x0801c744   Section        4  ctype_o.o(.constdata)
    table                                    0x0801c744   Data           4  ctype_o.o(.constdata)
    .conststring                             0x0801c748   Section      112  scpi-def.o(.conststring)
    .conststring                             0x0801c7b8   Section     1402  scpi-def.o(.conststring)
    .conststring                             0x0801cd34   Section      115  units.o(.conststring)
    .conststring                             0x0801cda8   Section       65  units.o(.conststring)
    .data                                    0x20000000   Section       20  stm32f10x_rcc.o(.data)
    ADCPrescTable                            0x20000000   Data           4  stm32f10x_rcc.o(.data)
    APBAHBPrescTable                         0x20000004   Data          16  stm32f10x_rcc.o(.data)
    .data                                    0x20000014   Section       12  main.o(.data)
    .data                                    0x20000020   Section        4  main.o(.data)
    .data                                    0x20000024   Section        4  main.o(.data)
    .data                                    0x20000028   Section       12  stm32f10x_it.o(.data)
    .data                                    0x20000034   Section       20  system_stm32f10x.o(.data)
    .data                                    0x20000048   Section        6  adc.o(.data)
    a                                        0x20000048   Data           1  adc.o(.data)
    b                                        0x20000049   Data           1  adc.o(.data)
    .data                                    0x2000004e   Section        2  adc.o(.data)
    .data                                    0x20000050   Section        2  adc.o(.data)
    .data                                    0x20000054   Section        4  bsp_systick.o(.data)
    TimingDelay                              0x20000054   Data           4  bsp_systick.o(.data)
    .data                                    0x20000058   Section        1  at24c01.o(.data)
    date                                     0x20000058   Data           1  at24c01.o(.data)
    .data                                    0x20000059   Section        1  clock.o(.data)
    .data                                    0x2000005c   Section       56  modbus.o(.data)
    .data                                    0x20000094   Section        8  usart.o(.data)
    .data                                    0x2000009c   Section        1  usart.o(.data)
    .data                                    0x2000009d   Section        1  usart.o(.data)
    .data                                    0x2000009e   Section       12  fan_pro.o(.data)
    .data                                    0x200000ac   Section        8  menu.o(.data)
    LED_ON_V                                 0x200000b0   Data           4  menu.o(.data)
    .data                                    0x200000b4   Section        3  ad7689.o(.data)
    var_chI                                  0x200000b4   Data           1  ad7689.o(.data)
    I_cont                                   0x200000b5   Data           1  ad7689.o(.data)
    V_cont                                   0x200000b6   Data           1  ad7689.o(.data)
    .data                                    0x200000b8   Section      128  scpi-def.o(.data)
    .data                                    0x20000138   Section       20  scpi-def.o(.data)
    .data                                    0x2000014c   Section        4  errno.o(.data)
    _errno                                   0x2000014c   Data           4  errno.o(.data)
    .bss                                     0x20000150   Section      400  adc.o(.bss)
    .bss                                     0x200002e0   Section      484  modbus.o(.bss)
    .bss                                     0x200004c4   Section      200  usart.o(.bss)
    .bss                                     0x2000058c   Section      400  usart.o(.bss)
    .bss                                     0x2000071c   Section      200  usart.o(.bss)
    .bss                                     0x200007e4   Section      456  ad7689.o(.bss)
    .bss                                     0x200009ac   Section      256  scpi-def.o(.bss)
    .bss                                     0x20000aac   Section       34  scpi-def.o(.bss)
    .bss                                     0x20000ad0   Section      152  scpi-def.o(.bss)
    STACK                                    0x20000b68   Section     2048  startup_stm32f10x_hd.o(STACK)

    Global Symbols

    Symbol Name                              Value     Ov Type        Size  Object(Section)

    BuildAttributes$$THM_ISAv4$P$D$K$B$S$PE$A:L22UL41UL21$X:L11$S22US41US21$IEEE1$IW$USESV6$~STKCKD$USESV7$~SHL$OTIME$ROPI$IEEEJ$EBA8$MICROLIB$REQ8$PRES8$EABIv2 0x00000000   Number         0  anon$$obj.o ABSOLUTE
    __ARM_use_no_argv                        0x00000000   Number         0  main.o ABSOLUTE
    __use_no_errno                           0x00000000   Number         0  useno.o ABSOLUTE
    __use_no_exception_handling              0x00000000   Number         0  useno.o ABSOLUTE
    __use_no_fp                              0x00000000   Number         0  useno.o ABSOLUTE
    __use_no_heap                            0x00000000   Number         0  useno.o ABSOLUTE
    __use_no_heap_region                     0x00000000   Number         0  useno.o ABSOLUTE
    __use_no_semihosting                     0x00000000   Number         0  useno.o ABSOLUTE
    __use_no_semihosting_swi                 0x00000000   Number         0  useno.o ABSOLUTE
    __use_no_signal_handling                 0x00000000   Number         0  useno.o ABSOLUTE
    _printf_a                                0x00000000   Number         0  stubs.o ABSOLUTE
    _printf_c                                0x00000000   Number         0  stubs.o ABSOLUTE
    _printf_charcount                        0x00000000   Number         0  stubs.o ABSOLUTE
    _printf_d                                0x00000000   Number         0  stubs.o ABSOLUTE
    _printf_e                                0x00000000   Number         0  stubs.o ABSOLUTE
    _printf_f                                0x00000000   Number         0  stubs.o ABSOLUTE
    _printf_flags                            0x00000000   Number         0  stubs.o ABSOLUTE
    _printf_fp_dec                           0x00000000   Number         0  stubs.o ABSOLUTE
    _printf_fp_hex                           0x00000000   Number         0  stubs.o ABSOLUTE
    _printf_g                                0x00000000   Number         0  stubs.o ABSOLUTE
    _printf_i                                0x00000000   Number         0  stubs.o ABSOLUTE
    _printf_int_dec                          0x00000000   Number         0  stubs.o ABSOLUTE
    _printf_l                                0x00000000   Number         0  stubs.o ABSOLUTE
    _printf_lc                               0x00000000   Number         0  stubs.o ABSOLUTE
    _printf_ll                               0x00000000   Number         0  stubs.o ABSOLUTE
    _printf_lld                              0x00000000   Number         0  stubs.o ABSOLUTE
    _printf_lli                              0x00000000   Number         0  stubs.o ABSOLUTE
    _printf_llo                              0x00000000   Number         0  stubs.o ABSOLUTE
    _printf_llu                              0x00000000   Number         0  stubs.o ABSOLUTE
    _printf_llx                              0x00000000   Number         0  stubs.o ABSOLUTE
    _printf_longlong_dec                     0x00000000   Number         0  stubs.o ABSOLUTE
    _printf_longlong_hex                     0x00000000   Number         0  stubs.o ABSOLUTE
    _printf_longlong_oct                     0x00000000   Number         0  stubs.o ABSOLUTE
    _printf_ls                               0x00000000   Number         0  stubs.o ABSOLUTE
    _printf_mbtowc                           0x00000000   Number         0  stubs.o ABSOLUTE
    _printf_n                                0x00000000   Number         0  stubs.o ABSOLUTE
    _printf_o                                0x00000000   Number         0  stubs.o ABSOLUTE
    _printf_p                                0x00000000   Number         0  stubs.o ABSOLUTE
    _printf_percent                          0x00000000   Number         0  stubs.o ABSOLUTE
    _printf_pre_padding                      0x00000000   Number         0  stubs.o ABSOLUTE
    _printf_return_value                     0x00000000   Number         0  stubs.o ABSOLUTE
    _printf_s                                0x00000000   Number         0  stubs.o ABSOLUTE
    _printf_sizespec                         0x00000000   Number         0  stubs.o ABSOLUTE
    _printf_str                              0x00000000   Number         0  stubs.o ABSOLUTE
    _printf_truncate_signed                  0x00000000   Number         0  stubs.o ABSOLUTE
    _printf_truncate_unsigned                0x00000000   Number         0  stubs.o ABSOLUTE
    _printf_u                                0x00000000   Number         0  stubs.o ABSOLUTE
    _printf_wc                               0x00000000   Number         0  stubs.o ABSOLUTE
    _printf_wctomb                           0x00000000   Number         0  stubs.o ABSOLUTE
    _printf_widthprec                        0x00000000   Number         0  stubs.o ABSOLUTE
    _printf_x                                0x00000000   Number         0  stubs.o ABSOLUTE
    __cpp_initialize__aeabi_                  - Undefined Weak Reference
    __cxa_finalize                            - Undefined Weak Reference
    _clock_init                               - Undefined Weak Reference
    _microlib_exit                            - Undefined Weak Reference
    __Vectors_Size                           0x00000130   Number         0  startup_stm32f10x_hd.o ABSOLUTE
    __Vectors                                0x08010000   Data           4  startup_stm32f10x_hd.o(RESET)
    __Vectors_End                            0x08010130   Data           0  startup_stm32f10x_hd.o(RESET)
    __main                                   0x08010131   Thumb Code     0  entry.o(.ARM.Collect$$$$00000000)
    _main_stk                                0x08010131   Thumb Code     0  entry2.o(.ARM.Collect$$$$00000001)
    _main_scatterload                        0x08010135   Thumb Code     0  entry5.o(.ARM.Collect$$$$00000004)
    __main_after_scatterload                 0x08010139   Thumb Code     0  entry5.o(.ARM.Collect$$$$00000004)
    _main_clock                              0x08010139   Thumb Code     0  entry7b.o(.ARM.Collect$$$$00000008)
    _main_cpp_init                           0x08010139   Thumb Code     0  entry8b.o(.ARM.Collect$$$$0000000A)
    _main_init                               0x08010139   Thumb Code     0  entry9a.o(.ARM.Collect$$$$0000000B)
    __rt_final_cpp                           0x08010141   Thumb Code     0  entry10a.o(.ARM.Collect$$$$0000000D)
    __rt_final_exit                          0x08010141   Thumb Code     0  entry11a.o(.ARM.Collect$$$$0000000F)
    MSR_MSP                                  0x08010145   Thumb Code     6  main.o(.emb_text)
    Reset_Handler                            0x0801014d   Thumb Code     8  startup_stm32f10x_hd.o(.text)
    PendSV_Handler                           0x08010163   Thumb Code     2  startup_stm32f10x_hd.o(.text)
    ADC1_2_IRQHandler                        0x08010167   Thumb Code     0  startup_stm32f10x_hd.o(.text)
    ADC3_IRQHandler                          0x08010167   Thumb Code     0  startup_stm32f10x_hd.o(.text)
    CAN1_RX1_IRQHandler                      0x08010167   Thumb Code     0  startup_stm32f10x_hd.o(.text)
    CAN1_SCE_IRQHandler                      0x08010167   Thumb Code     0  startup_stm32f10x_hd.o(.text)
    DMA1_Channel3_IRQHandler                 0x08010167   Thumb Code     0  startup_stm32f10x_hd.o(.text)
    DMA1_Channel4_IRQHandler                 0x08010167   Thumb Code     0  startup_stm32f10x_hd.o(.text)
    DMA1_Channel5_IRQHandler                 0x08010167   Thumb Code     0  startup_stm32f10x_hd.o(.text)
    DMA1_Channel6_IRQHandler                 0x08010167   Thumb Code     0  startup_stm32f10x_hd.o(.text)
    DMA1_Channel7_IRQHandler                 0x08010167   Thumb Code     0  startup_stm32f10x_hd.o(.text)
    DMA2_Channel1_IRQHandler                 0x08010167   Thumb Code     0  startup_stm32f10x_hd.o(.text)
    DMA2_Channel2_IRQHandler                 0x08010167   Thumb Code     0  startup_stm32f10x_hd.o(.text)
    DMA2_Channel3_IRQHandler                 0x08010167   Thumb Code     0  startup_stm32f10x_hd.o(.text)
    DMA2_Channel4_5_IRQHandler               0x08010167   Thumb Code     0  startup_stm32f10x_hd.o(.text)
    EXTI0_IRQHandler                         0x08010167   Thumb Code     0  startup_stm32f10x_hd.o(.text)
    EXTI15_10_IRQHandler                     0x08010167   Thumb Code     0  startup_stm32f10x_hd.o(.text)
    EXTI1_IRQHandler                         0x08010167   Thumb Code     0  startup_stm32f10x_hd.o(.text)
    EXTI2_IRQHandler                         0x08010167   Thumb Code     0  startup_stm32f10x_hd.o(.text)
    EXTI3_IRQHandler                         0x08010167   Thumb Code     0  startup_stm32f10x_hd.o(.text)
    EXTI4_IRQHandler                         0x08010167   Thumb Code     0  startup_stm32f10x_hd.o(.text)
    EXTI9_5_IRQHandler                       0x08010167   Thumb Code     0  startup_stm32f10x_hd.o(.text)
    FLASH_IRQHandler                         0x08010167   Thumb Code     0  startup_stm32f10x_hd.o(.text)
    FSMC_IRQHandler                          0x08010167   Thumb Code     0  startup_stm32f10x_hd.o(.text)
    I2C1_ER_IRQHandler                       0x08010167   Thumb Code     0  startup_stm32f10x_hd.o(.text)
    I2C1_EV_IRQHandler                       0x08010167   Thumb Code     0  startup_stm32f10x_hd.o(.text)
    I2C2_ER_IRQHandler                       0x08010167   Thumb Code     0  startup_stm32f10x_hd.o(.text)
    I2C2_EV_IRQHandler                       0x08010167   Thumb Code     0  startup_stm32f10x_hd.o(.text)
    PVD_IRQHandler                           0x08010167   Thumb Code     0  startup_stm32f10x_hd.o(.text)
    RCC_IRQHandler                           0x08010167   Thumb Code     0  startup_stm32f10x_hd.o(.text)
    RTCAlarm_IRQHandler                      0x08010167   Thumb Code     0  startup_stm32f10x_hd.o(.text)
    RTC_IRQHandler                           0x08010167   Thumb Code     0  startup_stm32f10x_hd.o(.text)
    SDIO_IRQHandler                          0x08010167   Thumb Code     0  startup_stm32f10x_hd.o(.text)
    SPI1_IRQHandler                          0x08010167   Thumb Code     0  startup_stm32f10x_hd.o(.text)
    SPI2_IRQHandler                          0x08010167   Thumb Code     0  startup_stm32f10x_hd.o(.text)
    SPI3_IRQHandler                          0x08010167   Thumb Code     0  startup_stm32f10x_hd.o(.text)
    TAMPER_IRQHandler                        0x08010167   Thumb Code     0  startup_stm32f10x_hd.o(.text)
    TIM1_BRK_IRQHandler                      0x08010167   Thumb Code     0  startup_stm32f10x_hd.o(.text)
    TIM1_CC_IRQHandler                       0x08010167   Thumb Code     0  startup_stm32f10x_hd.o(.text)
    TIM1_TRG_COM_IRQHandler                  0x08010167   Thumb Code     0  startup_stm32f10x_hd.o(.text)
    TIM1_UP_IRQHandler                       0x08010167   Thumb Code     0  startup_stm32f10x_hd.o(.text)
    TIM2_IRQHandler                          0x08010167   Thumb Code     0  startup_stm32f10x_hd.o(.text)
    TIM3_IRQHandler                          0x08010167   Thumb Code     0  startup_stm32f10x_hd.o(.text)
    TIM5_IRQHandler                          0x08010167   Thumb Code     0  startup_stm32f10x_hd.o(.text)
    TIM6_IRQHandler                          0x08010167   Thumb Code     0  startup_stm32f10x_hd.o(.text)
    TIM7_IRQHandler                          0x08010167   Thumb Code     0  startup_stm32f10x_hd.o(.text)
    TIM8_BRK_IRQHandler                      0x08010167   Thumb Code     0  startup_stm32f10x_hd.o(.text)
    TIM8_CC_IRQHandler                       0x08010167   Thumb Code     0  startup_stm32f10x_hd.o(.text)
    TIM8_TRG_COM_IRQHandler                  0x08010167   Thumb Code     0  startup_stm32f10x_hd.o(.text)
    TIM8_UP_IRQHandler                       0x08010167   Thumb Code     0  startup_stm32f10x_hd.o(.text)
    UART4_IRQHandler                         0x08010167   Thumb Code     0  startup_stm32f10x_hd.o(.text)
    UART5_IRQHandler                         0x08010167   Thumb Code     0  startup_stm32f10x_hd.o(.text)
    USBWakeUp_IRQHandler                     0x08010167   Thumb Code     0  startup_stm32f10x_hd.o(.text)
    USB_HP_CAN1_TX_IRQHandler                0x08010167   Thumb Code     0  startup_stm32f10x_hd.o(.text)
    USB_LP_CAN1_RX0_IRQHandler               0x08010167   Thumb Code     0  startup_stm32f10x_hd.o(.text)
    WWDG_IRQHandler                          0x08010167   Thumb Code     0  startup_stm32f10x_hd.o(.text)
    __aeabi_uldivmod                         0x08010171   Thumb Code    98  uldiv.o(.text)
    __rt_ctype_table                         0x080101d5   Thumb Code     4  ctype_o.o(.text)
    isspace                                  0x080101dd   Thumb Code    18  isspace_o.o(.text)
    ___aeabi_memcpy8$move                    0x080101ef   Thumb Code     0  memmovea.o(.text)
    __aeabi_memcpy                           0x080101ef   Thumb Code    64  memmovea.o(.text)
    __aeabi_memcpy4                          0x080101ef   Thumb Code     0  memmovea.o(.text)
    __aeabi_memmove                          0x080101ef   Thumb Code     0  memmovea.o(.text)
    __aeabi_memmove4                         0x080101ef   Thumb Code     0  memmovea.o(.text)
    __aeabi_memmove8                         0x080101ef   Thumb Code     0  memmovea.o(.text)
    __aeabi_memset                           0x0801022f   Thumb Code    14  memseta.o(.text)
    __aeabi_memset4                          0x0801022f   Thumb Code     0  memseta.o(.text)
    __aeabi_memset8                          0x0801022f   Thumb Code     0  memseta.o(.text)
    __aeabi_memclr                           0x0801023d   Thumb Code     4  memseta.o(.text)
    __aeabi_memclr4                          0x0801023d   Thumb Code     0  memseta.o(.text)
    __aeabi_memclr8                          0x0801023d   Thumb Code     0  memseta.o(.text)
    _memset$wrapper                          0x08010241   Thumb Code    18  memseta.o(.text)
    strncpy                                  0x08010253   Thumb Code    24  strncpy.o(.text)
    strlen                                   0x0801026b   Thumb Code    14  strlen.o(.text)
    strncat                                  0x08010279   Thumb Code    40  strncat.o(.text)
    strncasecmp                              0x080102a1   Thumb Code    50  strncasecmp.o(.text)
    strtol                                   0x080102d3   Thumb Code   112  strtol.o(.text)
    strtoul                                  0x08010343   Thumb Code   114  strtoul.o(.text)
    strtoll                                  0x080103b5   Thumb Code     4  strtoll.o(.text)
    strtoull                                 0x080103b9   Thumb Code     4  strtoull.o(.text)
    __aeabi_fadd                             0x080103bd   Thumb Code   164  fadd.o(.text)
    __aeabi_fsub                             0x08010461   Thumb Code     6  fadd.o(.text)
    __aeabi_frsub                            0x08010467   Thumb Code     6  fadd.o(.text)
    __aeabi_fmul                             0x0801046d   Thumb Code   100  fmul.o(.text)
    __aeabi_fdiv                             0x080104d1   Thumb Code   124  fdiv.o(.text)
    __aeabi_dadd                             0x0801054d   Thumb Code   322  dadd.o(.text)
    __aeabi_dsub                             0x0801068f   Thumb Code     6  dadd.o(.text)
    __aeabi_drsub                            0x08010695   Thumb Code     6  dadd.o(.text)
    __aeabi_dmul                             0x0801069b   Thumb Code   228  dmul.o(.text)
    __aeabi_ddiv                             0x0801077f   Thumb Code   222  ddiv.o(.text)
    __aeabi_ui2f                             0x0801085d   Thumb Code    10  ffltui.o(.text)
    __aeabi_ul2d                             0x08010867   Thumb Code    24  dfltul.o(.text)
    __aeabi_f2uiz                            0x0801087f   Thumb Code    40  ffixui.o(.text)
    __aeabi_f2d                              0x080108a7   Thumb Code    38  f2d.o(.text)
    __aeabi_cdcmpeq                          0x080108cd   Thumb Code     0  cdcmple.o(.text)
    __aeabi_cdcmple                          0x080108cd   Thumb Code    48  cdcmple.o(.text)
    __aeabi_cdrcmple                         0x080108fd   Thumb Code    48  cdrcmple.o(.text)
    __aeabi_cfrcmple                         0x0801092d   Thumb Code    20  cfrcmple.o(.text)
    __aeabi_uidiv                            0x08010941   Thumb Code     0  uidiv.o(.text)
    __aeabi_uidivmod                         0x08010941   Thumb Code    44  uidiv.o(.text)
    __aeabi_llsl                             0x0801096d   Thumb Code    30  llshl.o(.text)
    _ll_shift_l                              0x0801096d   Thumb Code     0  llshl.o(.text)
    __aeabi_llsr                             0x0801098b   Thumb Code    32  llushr.o(.text)
    _ll_ushift_r                             0x0801098b   Thumb Code     0  llushr.o(.text)
    __aeabi_lasr                             0x080109ab   Thumb Code    36  llsshr.o(.text)
    _ll_sshift_r                             0x080109ab   Thumb Code     0  llsshr.o(.text)
    tolower                                  0x080109cf   Thumb Code    12  tolower.o(.text)
    _strtoul                                 0x080109db   Thumb Code   158  _strtoul.o(.text)
    __strtod_int                             0x08010aaf   Thumb Code    90  strtod.o(.text)
    __strtof_int                             0x08010b15   Thumb Code    26  strtof.o(.text)
    __strtoll                                0x08010b2f   Thumb Code   144  __strtoll.o(.text)
    __strtoull                               0x08010bbf   Thumb Code   124  __strtoull.o(.text)
    __I$use$fp                               0x08010c3b   Thumb Code     0  iusefp.o(.text)
    _float_round                             0x08010c3b   Thumb Code    18  fepilogue.o(.text)
    _float_epilogue                          0x08010c4d   Thumb Code    92  fepilogue.o(.text)
    _double_round                            0x08010ca9   Thumb Code    30  depilogue.o(.text)
    _double_epilogue                         0x08010cc7   Thumb Code   156  depilogue.o(.text)
    __ARM_scalbn                             0x08010d63   Thumb Code    46  dscalb.o(.text)
    scalbn                                   0x08010d63   Thumb Code     0  dscalb.o(.text)
    __aeabi_d2ulz                            0x08010d91   Thumb Code    48  dfixul.o(.text)
    __scatterload                            0x08010dc1   Thumb Code    28  init.o(.text)
    __scatterload_rt2                        0x08010dc1   Thumb Code     0  init.o(.text)
    _chval                                   0x08010de5   Thumb Code    28  _chval.o(.text)
    _scanf_real                              0x08010f29   Thumb Code     0  scanf_fp.o(.text)
    _scanf_really_real                       0x08010f29   Thumb Code   556  scanf_fp.o(.text)
    _sgetc                                   0x08011161   Thumb Code    30  _sgetc.o(.text)
    _sbackspace                              0x0801117f   Thumb Code    34  _sgetc.o(.text)
    _strtoull                                0x080111a1   Thumb Code   194  _strtoull.o(.text)
    __aeabi_d2f                              0x08011263   Thumb Code    56  d2f.o(.text)
    __fp_status                              0x0801129b   Thumb Code     4  fpstat.o(.text)
    __ieee_status                            0x0801129b   Thumb Code     0  fpstat.o(.text)
    __decompress                             0x0801129f   Thumb Code     0  __dczerorl2.o(.text)
    __decompress1                            0x0801129f   Thumb Code    86  __dczerorl2.o(.text)
    AD5541_GPIOCoing                         0x080112f5   Thumb Code    32  dac.o(i.AD5541_GPIOCoing)
    AD5541_Send                              0x08011319   Thumb Code   180  dac.o(i.AD5541_Send)
    AD7689_Delay                             0x080113d1   Thumb Code    30  ad7689.o(i.AD7689_Delay)
    AD7689_InitializeSPI2                    0x080113f1   Thumb Code   188  ad7689.o(i.AD7689_InitializeSPI2)
    AD7689_Scan_CH                           0x080114b5   Thumb Code   286  ad7689.o(i.AD7689_Scan_CH)
    AD7689_TransferByte                      0x080115e9   Thumb Code    56  ad7689.o(i.AD7689_TransferByte)
    ADC1_DMA_Init                            0x08011625   Thumb Code   276  adc.o(i.ADC1_DMA_Init)
    ADC_CH_Scan                              0x08011745   Thumb Code   198  adc.o(i.ADC_CH_Scan)
    ADC_Cmd                                  0x08011815   Thumb Code    20  stm32f10x_adc.o(i.ADC_Cmd)
    ADC_DMACmd                               0x08011829   Thumb Code    20  stm32f10x_adc.o(i.ADC_DMACmd)
    ADC_DeInit                               0x0801183d   Thumb Code    56  stm32f10x_adc.o(i.ADC_DeInit)
    ADC_GetCalibrationStatus                 0x08011881   Thumb Code    14  stm32f10x_adc.o(i.ADC_GetCalibrationStatus)
    ADC_GetResetCalibrationStatus            0x0801188f   Thumb Code    14  stm32f10x_adc.o(i.ADC_GetResetCalibrationStatus)
    ADC_Init                                 0x0801189d   Thumb Code    62  stm32f10x_adc.o(i.ADC_Init)
    ADC_RegularChannelConfig                 0x080118e5   Thumb Code   116  stm32f10x_adc.o(i.ADC_RegularChannelConfig)
    ADC_ResetCalibration                     0x08011959   Thumb Code    10  stm32f10x_adc.o(i.ADC_ResetCalibration)
    ADC_SoftwareStartConvCmd                 0x08011963   Thumb Code    20  stm32f10x_adc.o(i.ADC_SoftwareStartConvCmd)
    ADC_StartCalibration                     0x08011977   Thumb Code    10  stm32f10x_adc.o(i.ADC_StartCalibration)
    All_protect                              0x08011981   Thumb Code   432  fan_pro.o(i.All_protect)
    BSD_strnlen                              0x08011b49   Thumb Code    22  utils.o(i.BSD_strnlen)
    Baud_SET                                 0x08011b61   Thumb Code    70  usart.o(i.Baud_SET)
    BusFault_Handler                         0x08011c9d   Thumb Code     2  stm32f10x_it.o(i.BusFault_Handler)
    Cont_coeff_LEDMODE                       0x08011ee1   Thumb Code   146  menu.o(i.Cont_coeff_LEDMODE)
    DAM1_ADC_NVIC                            0x08011f7d   Thumb Code    32  adc.o(i.DAM1_ADC_NVIC)
    DMA1_Channel1_IRQHandler                 0x08011f9d   Thumb Code    16  stm32f10x_it.o(i.DMA1_Channel1_IRQHandler)
    DMA1_Channel2_IRQHandler                 0x08011fb1   Thumb Code    20  stm32f10x_it.o(i.DMA1_Channel2_IRQHandler)
    DMA_ClearITPendingBit                    0x08011fc9   Thumb Code    16  stm32f10x_dma.o(i.DMA_ClearITPendingBit)
    DMA_Cmd                                  0x08011fe1   Thumb Code    22  stm32f10x_dma.o(i.DMA_Cmd)
    DMA_DeInit                               0x08011ff9   Thumb Code   218  stm32f10x_dma.o(i.DMA_DeInit)
    DMA_ITConfig                             0x080120dd   Thumb Code    16  stm32f10x_dma.o(i.DMA_ITConfig)
    DMA_Init                                 0x080120ed   Thumb Code    58  stm32f10x_dma.o(i.DMA_Init)
    DebugMon_Handler                         0x080124d9   Thumb Code     2  stm32f10x_it.o(i.DebugMon_Handler)
    EEPROM_READ_Byte                         0x080124dd   Thumb Code    76  at24c01.o(i.EEPROM_READ_Byte)
    EEPROM_READ_Coeff                        0x0801252d   Thumb Code  3444  flash.o(i.EEPROM_READ_Coeff)
    EEPROM_WriteByte                         0x080132a1   Thumb Code   108  at24c01.o(i.EEPROM_WriteByte)
    FLASH_PrefetchBufferCmd                  0x0801330d   Thumb Code    18  stm32f10x_flash.o(i.FLASH_PrefetchBufferCmd)
    FLASH_SetLatency                         0x08013325   Thumb Code    14  stm32f10x_flash.o(i.FLASH_SetLatency)
    Flash_Write_all                          0x08013339   Thumb Code  3550  flash.o(i.Flash_Write_all)
    GPIO_AFIODeInit                          0x08014117   Thumb Code    22  stm32f10x_gpio.o(i.GPIO_AFIODeInit)
    GPIO_Conf                                0x0801412d   Thumb Code   134  gpio.o(i.GPIO_Conf)
    GPIO_DeInit                              0x080141c9   Thumb Code   152  stm32f10x_gpio.o(i.GPIO_DeInit)
    GPIO_Init                                0x0801427d   Thumb Code   162  stm32f10x_gpio.o(i.GPIO_Init)
    GPIO_PinRemapConfig                      0x08014321   Thumb Code    82  stm32f10x_gpio.o(i.GPIO_PinRemapConfig)
    GPIO_ReadInputDataBit                    0x08014379   Thumb Code    14  stm32f10x_gpio.o(i.GPIO_ReadInputDataBit)
    GPIO_ResetBits                           0x08014387   Thumb Code     4  stm32f10x_gpio.o(i.GPIO_ResetBits)
    GPIO_SetBits                             0x0801438b   Thumb Code     4  stm32f10x_gpio.o(i.GPIO_SetBits)
    HardFault_Handler                        0x0801438f   Thumb Code     2  stm32f10x_it.o(i.HardFault_Handler)
    Hardware_CRC                             0x08014391   Thumb Code   124  modbus.o(i.Hardware_CRC)
    IWDG_Enable                              0x080145e1   Thumb Code    10  stm32f10x_iwdg.o(i.IWDG_Enable)
    IWDG_Inte                                0x080145f1   Thumb Code    34  iwdg.o(i.IWDG_Inte)
    IWDG_ReloadCounter                       0x08014615   Thumb Code    10  stm32f10x_iwdg.o(i.IWDG_ReloadCounter)
    IWDG_SetPrescaler                        0x08014625   Thumb Code     6  stm32f10x_iwdg.o(i.IWDG_SetPrescaler)
    IWDG_SetReload                           0x08014631   Thumb Code     6  stm32f10x_iwdg.o(i.IWDG_SetReload)
    IWDG_WriteAccessCmd                      0x0801463d   Thumb Code     6  stm32f10x_iwdg.o(i.IWDG_WriteAccessCmd)
    I_SW_COTNR                               0x08014649   Thumb Code   138  menu.o(i.I_SW_COTNR)
    MemManage_Handler                        0x08014749   Thumb Code     2  stm32f10x_it.o(i.MemManage_Handler)
    NMI_Handler                              0x08014757   Thumb Code     2  stm32f10x_it.o(i.NMI_Handler)
    NVIC_Init                                0x08014759   Thumb Code    94  misc.o(i.NVIC_Init)
    NVIC_PriorityGroupConfig                 0x080147bd   Thumb Code    10  misc.o(i.NVIC_PriorityGroupConfig)
    NVIC_SetVectorTable                      0x080147d1   Thumb Code    12  misc.o(i.NVIC_SetVectorTable)
    RCC_ADCCLKConfig                         0x08014979   Thumb Code    14  stm32f10x_rcc.o(i.RCC_ADCCLKConfig)
    RCC_AHBPeriphClockCmd                    0x0801498d   Thumb Code    18  stm32f10x_rcc.o(i.RCC_AHBPeriphClockCmd)
    RCC_APB1PeriphClockCmd                   0x080149a5   Thumb Code    18  stm32f10x_rcc.o(i.RCC_APB1PeriphClockCmd)
    RCC_APB2PeriphClockCmd                   0x080149bd   Thumb Code    18  stm32f10x_rcc.o(i.RCC_APB2PeriphClockCmd)
    RCC_APB2PeriphResetCmd                   0x080149d5   Thumb Code    18  stm32f10x_rcc.o(i.RCC_APB2PeriphResetCmd)
    RCC_Configuration                        0x080149ed   Thumb Code   102  clock.o(i.RCC_Configuration)
    RCC_DeInit                               0x08014a59   Thumb Code    50  stm32f10x_rcc.o(i.RCC_DeInit)
    RCC_GetClocksFreq                        0x08014a99   Thumb Code   128  stm32f10x_rcc.o(i.RCC_GetClocksFreq)
    RCC_GetFlagStatus                        0x08014b29   Thumb Code    44  stm32f10x_rcc.o(i.RCC_GetFlagStatus)
    RCC_GetSYSCLKSource                      0x08014b59   Thumb Code    10  stm32f10x_rcc.o(i.RCC_GetSYSCLKSource)
    RCC_HCLKConfig                           0x08014b69   Thumb Code    14  stm32f10x_rcc.o(i.RCC_HCLKConfig)
    RCC_HSEConfig                            0x08014b7d   Thumb Code    48  stm32f10x_rcc.o(i.RCC_HSEConfig)
    RCC_PCLK1Config                          0x08014bb1   Thumb Code    14  stm32f10x_rcc.o(i.RCC_PCLK1Config)
    RCC_PCLK2Config                          0x08014bc5   Thumb Code    16  stm32f10x_rcc.o(i.RCC_PCLK2Config)
    RCC_PLLCmd                               0x08014bd9   Thumb Code     6  stm32f10x_rcc.o(i.RCC_PLLCmd)
    RCC_PLLConfig                            0x08014be5   Thumb Code    16  stm32f10x_rcc.o(i.RCC_PLLConfig)
    RCC_SYSCLKConfig                         0x08014bf9   Thumb Code    14  stm32f10x_rcc.o(i.RCC_SYSCLKConfig)
    RCC_WaitForHSEStartUp                    0x08014c0d   Thumb Code    44  stm32f10x_rcc.o(i.RCC_WaitForHSEStartUp)
    SCPI_ChoiceToName                        0x08014cad   Thumb Code    42  parser.o(i.SCPI_ChoiceToName)
    SCPI_CommandNumbers                      0x08014cd7   Thumb Code    24  parser.o(i.SCPI_CommandNumbers)
    SCPI_CoreCls                             0x08014cef   Thumb Code    38  ieee488.o(i.SCPI_CoreCls)
    SCPI_CoreEse                             0x08014d15   Thumb Code    36  ieee488.o(i.SCPI_CoreEse)
    SCPI_CoreEseQ                            0x08014d39   Thumb Code    22  ieee488.o(i.SCPI_CoreEseQ)
    SCPI_CoreEsrQ                            0x08014d4f   Thumb Code    32  ieee488.o(i.SCPI_CoreEsrQ)
    SCPI_CoreIdnQ                            0x08014d71   Thumb Code    50  ieee488.o(i.SCPI_CoreIdnQ)
    SCPI_CoreOpc                             0x08014da9   Thumb Code    14  ieee488.o(i.SCPI_CoreOpc)
    SCPI_CoreOpcQ                            0x08014db7   Thumb Code    12  ieee488.o(i.SCPI_CoreOpcQ)
    SCPI_CoreRst                             0x08014dc3   Thumb Code    16  ieee488.o(i.SCPI_CoreRst)
    SCPI_CoreSre                             0x08014dd3   Thumb Code    36  ieee488.o(i.SCPI_CoreSre)
    SCPI_CoreSreQ                            0x08014df7   Thumb Code    22  ieee488.o(i.SCPI_CoreSreQ)
    SCPI_CoreStbQ                            0x08014e0d   Thumb Code    22  ieee488.o(i.SCPI_CoreStbQ)
    SCPI_CoreWai                             0x08014e23   Thumb Code     4  ieee488.o(i.SCPI_CoreWai)
    SCPI_DoubleToStr                         0x08014e29   Thumb Code    28  utils.o(i.SCPI_DoubleToStr)
    SCPI_ErrorClear                          0x08014e4d   Thumb Code    20  error.o(i.SCPI_ErrorClear)
    SCPI_ErrorCount                          0x08014e61   Thumb Code    22  error.o(i.SCPI_ErrorCount)
    SCPI_ErrorInit                           0x08014ed7   Thumb Code     6  error.o(i.SCPI_ErrorInit)
    SCPI_ErrorPop                            0x08014edd   Thumb Code    34  error.o(i.SCPI_ErrorPop)
    SCPI_ErrorPush                           0x08014eff   Thumb Code     8  error.o(i.SCPI_ErrorPush)
    SCPI_ErrorPushEx                         0x08014f09   Thumb Code   162  error.o(i.SCPI_ErrorPushEx)
    SCPI_ErrorTranslate                      0x08014fb5   Thumb Code   168  error.o(i.SCPI_ErrorTranslate)
    SCPI_EventClear                          0x0801519d   Thumb Code     8  ieee488.o(i.SCPI_EventClear)
    SCPI_ExprChannelListEntry                0x080151a5   Thumb Code   210  expression.o(i.SCPI_ExprChannelListEntry)
    SCPI_FloatToStr                          0x0801527d   Thumb Code    34  utils.o(i.SCPI_FloatToStr)
    SCPI_Init                                0x080152a5   Thumb Code    78  parser.o(i.SCPI_Init)
    SCPI_Input                               0x080152f3   Thumb Code   174  parser.o(i.SCPI_Input)
    SCPI_NumberToStr                         0x080153a1   Thumb Code   196  units.o(i.SCPI_NumberToStr)
    SCPI_ParamArbitraryBlock                 0x0801546d   Thumb Code    62  parser.o(i.SCPI_ParamArbitraryBlock)
    SCPI_ParamBool                           0x080154b1   Thumb Code    78  parser.o(i.SCPI_ParamBool)
    SCPI_ParamChoice                         0x08015509   Thumb Code    48  parser.o(i.SCPI_ParamChoice)
    SCPI_ParamCopyText                       0x0801553d   Thumb Code   120  parser.o(i.SCPI_ParamCopyText)
    SCPI_ParamDouble                         0x080155b9   Thumb Code    82  parser.o(i.SCPI_ParamDouble)
    SCPI_ParamFloat                          0x08015611   Thumb Code    82  parser.o(i.SCPI_ParamFloat)
    SCPI_ParamInt32                          0x08015669   Thumb Code     6  parser.o(i.SCPI_ParamInt32)
    SCPI_ParamIsNumber                       0x0801566f   Thumb Code    30  parser.o(i.SCPI_ParamIsNumber)
    SCPI_ParamNumber                         0x0801568d   Thumb Code   230  units.o(i.SCPI_ParamNumber)
    SCPI_ParamToChoice                       0x08015779   Thumb Code   118  parser.o(i.SCPI_ParamToChoice)
    SCPI_ParamToDouble                       0x080157f5   Thumb Code    76  parser.o(i.SCPI_ParamToDouble)
    SCPI_ParamToFloat                        0x08015845   Thumb Code    72  parser.o(i.SCPI_ParamToFloat)
    SCPI_ParamToInt32                        0x08015891   Thumb Code     6  parser.o(i.SCPI_ParamToInt32)
    SCPI_ParamToUInt32                       0x08015897   Thumb Code     6  parser.o(i.SCPI_ParamToUInt32)
    SCPI_ParamToUInt64                       0x0801589d   Thumb Code     6  parser.o(i.SCPI_ParamToUInt64)
    SCPI_ParamUInt32                         0x080158a3   Thumb Code     6  parser.o(i.SCPI_ParamUInt32)
    SCPI_Parameter                           0x080158a9   Thumb Code   150  parser.o(i.SCPI_Parameter)
    SCPI_Parse                               0x08015945   Thumb Code   272  parser.o(i.SCPI_Parse)
    SCPI_RegClearBits                        0x08015a5d   Thumb Code    26  ieee488.o(i.SCPI_RegClearBits)
    SCPI_RegGet                              0x08015a77   Thumb Code    20  ieee488.o(i.SCPI_RegGet)
    SCPI_RegSet                              0x08015a8b   Thumb Code   194  ieee488.o(i.SCPI_RegSet)
    SCPI_RegSetBits                          0x08015b4d   Thumb Code    24  ieee488.o(i.SCPI_RegSetBits)
    SCPI_ResultArbitraryBlock                0x08015b65   Thumb Code    34  parser.o(i.SCPI_ResultArbitraryBlock)
    SCPI_ResultArbitraryBlockData            0x08015b89   Thumb Code    42  parser.o(i.SCPI_ResultArbitraryBlockData)
    SCPI_ResultArbitraryBlockHeader          0x08015bb9   Thumb Code    56  parser.o(i.SCPI_ResultArbitraryBlockHeader)
    SCPI_ResultCharacters                    0x08015bf1   Thumb Code    38  parser.o(i.SCPI_ResultCharacters)
    SCPI_ResultDouble                        0x08015c17   Thumb Code    52  parser.o(i.SCPI_ResultDouble)
    SCPI_ResultError                         0x08015c4d   Thumb Code   236  parser.o(i.SCPI_ResultError)
    SCPI_ResultFloat                         0x08015d3d   Thumb Code    50  parser.o(i.SCPI_ResultFloat)
    SCPI_ResultInt32                         0x08015d6f   Thumb Code     8  parser.o(i.SCPI_ResultInt32)
    SCPI_StatusPreset                        0x08015d77   Thumb Code    14  minimal.o(i.SCPI_StatusPreset)
    SCPI_StatusQuestionableEnable            0x08015d85   Thumb Code    30  minimal.o(i.SCPI_StatusQuestionableEnable)
    SCPI_StatusQuestionableEnableQ           0x08015da3   Thumb Code    22  minimal.o(i.SCPI_StatusQuestionableEnableQ)
    SCPI_StatusQuestionableEventQ            0x08015db9   Thumb Code    32  minimal.o(i.SCPI_StatusQuestionableEventQ)
    SCPI_StubQ                               0x08015dd9   Thumb Code    12  minimal.o(i.SCPI_StubQ)
    SCPI_SystemErrorCountQ                   0x08015de5   Thumb Code    20  minimal.o(i.SCPI_SystemErrorCountQ)
    SCPI_SystemErrorNextQ                    0x08015df9   Thumb Code    22  minimal.o(i.SCPI_SystemErrorNextQ)
    SCPI_SystemVersionQ                      0x08015e11   Thumb Code    14  minimal.o(i.SCPI_SystemVersionQ)
    SCPI_UInt32ToStrBase                     0x08015e29   Thumb Code    12  utils.o(i.SCPI_UInt32ToStrBase)
    SCPI_Write                               0x08015e35   Thumb Code    48  main.o(i.SCPI_Write)
    SPI_AD7689_Read                          0x08015e69   Thumb Code    98  ad7689.o(i.SPI_AD7689_Read)
    SPI_Cmd                                  0x08015ed1   Thumb Code    20  stm32f10x_spi.o(i.SPI_Cmd)
    SPI_I2S_GetFlagStatus                    0x08015ee5   Thumb Code    14  stm32f10x_spi.o(i.SPI_I2S_GetFlagStatus)
    SPI_I2S_ReceiveData                      0x08015ef3   Thumb Code     4  stm32f10x_spi.o(i.SPI_I2S_ReceiveData)
    SPI_I2S_SendData                         0x08015ef7   Thumb Code     4  stm32f10x_spi.o(i.SPI_I2S_SendData)
    SPI_Init                                 0x08015efb   Thumb Code    56  stm32f10x_spi.o(i.SPI_Init)
    SVC_Handler                              0x08015f33   Thumb Code     2  stm32f10x_it.o(i.SVC_Handler)
    Sence_SW_CONT                            0x08015f35   Thumb Code    22  menu.o(i.Sence_SW_CONT)
    SysTick_Handler                          0x08015ffd   Thumb Code    44  stm32f10x_it.o(i.SysTick_Handler)
    SysTick_Init                             0x08016035   Thumb Code    58  bsp_systick.o(i.SysTick_Init)
    SystemInit                               0x08016079   Thumb Code    62  system_stm32f10x.o(i.SystemInit)
    TIM4_IRQHandler                          0x080162ad   Thumb Code   124  stm32f10x_it.o(i.TIM4_IRQHandler)
    TIM6_Config                              0x08016339   Thumb Code    88  tim6.o(i.TIM6_Config)
    TIM_ClearITPendingBit                    0x08016395   Thumb Code     6  stm32f10x_tim.o(i.TIM_ClearITPendingBit)
    TIM_Cmd                                  0x0801639b   Thumb Code    20  stm32f10x_tim.o(i.TIM_Cmd)
    TIM_ITConfig                             0x080163af   Thumb Code    16  stm32f10x_tim.o(i.TIM_ITConfig)
    TIM_TimeBaseInit                         0x080163c1   Thumb Code   114  stm32f10x_tim.o(i.TIM_TimeBaseInit)
    Temp_Comapre                             0x0801645d   Thumb Code    64  fan_pro.o(i.Temp_Comapre)
    TimingDelay_Decrement                    0x080164a9   Thumb Code    16  bsp_systick.o(i.TimingDelay_Decrement)
    Transformation_ADC                       0x080164bd   Thumb Code  3890  modbus.o(i.Transformation_ADC)
    UART1_Action                             0x080173f5   Thumb Code   936  modbus.o(i.UART1_Action)
    UART1_Send                               0x080177c1   Thumb Code    76  usart.o(i.UART1_Send)
    UART2_Send                               0x0801781d   Thumb Code    76  usart.o(i.UART2_Send)
    UART3_Action                             0x08017879   Thumb Code   936  modbus.o(i.UART3_Action)
    UART3_Send                               0x08017c45   Thumb Code    76  usart.o(i.UART3_Send)
    UART_Action                              0x08017ca1   Thumb Code  5486  modbus.o(i.UART_Action)
    UInt32ToStrBaseSign                      0x08019215   Thumb Code   174  utils.o(i.UInt32ToStrBaseSign)
    USART1_IRQHandler                        0x080192dd   Thumb Code   346  stm32f10x_it.o(i.USART1_IRQHandler)
    USART2_Configuration                     0x080194b5   Thumb Code   134  usart.o(i.USART2_Configuration)
    USART2_IRQHandler                        0x08019549   Thumb Code   244  stm32f10x_it.o(i.USART2_IRQHandler)
    USART3_Configuration                     0x08019655   Thumb Code   138  usart.o(i.USART3_Configuration)
    USART3_IRQHandler                        0x080196ed   Thumb Code   254  stm32f10x_it.o(i.USART3_IRQHandler)
    USART_ClearFlag                          0x08019809   Thumb Code     6  stm32f10x_usart.o(i.USART_ClearFlag)
    USART_ClearITPendingBit                  0x0801980f   Thumb Code    12  stm32f10x_usart.o(i.USART_ClearITPendingBit)
    USART_Cmd                                0x0801981b   Thumb Code    20  stm32f10x_usart.o(i.USART_Cmd)
    USART_Configuration                      0x08019831   Thumb Code   154  usart.o(i.USART_Configuration)
    USART_GetFlagStatus                      0x080198d9   Thumb Code    14  stm32f10x_usart.o(i.USART_GetFlagStatus)
    USART_GetITStatus                        0x080198e7   Thumb Code    62  stm32f10x_usart.o(i.USART_GetITStatus)
    USART_ITConfig                           0x08019925   Thumb Code    48  stm32f10x_usart.o(i.USART_ITConfig)
    USART_Init                               0x08019955   Thumb Code   166  stm32f10x_usart.o(i.USART_Init)
    USART_ReceiveData                        0x08019a01   Thumb Code     8  stm32f10x_usart.o(i.USART_ReceiveData)
    USART_SendData                           0x08019a09   Thumb Code     8  stm32f10x_usart.o(i.USART_SendData)
    UsageFault_Handler                       0x08019a11   Thumb Code     2  stm32f10x_it.o(i.UsageFault_Handler)
    V_SW_COTNR                               0x08019bd1   Thumb Code    70  menu.o(i.V_SW_COTNR)
    Write_ADDR                               0x08019c29   Thumb Code    72  flash.o(i.Write_ADDR)
    Write_bootflag                           0x08019c75   Thumb Code    10  flash.o(i.Write_bootflag)
    Write_bootmode                           0x08019c85   Thumb Code    14  flash.o(i.Write_bootmode)
    __0snprintf                              0x08019c99   Thumb Code    44  printfa.o(i.__0snprintf)
    __1snprintf                              0x08019c99   Thumb Code     0  printfa.o(i.__0snprintf)
    __2snprintf                              0x08019c99   Thumb Code     0  printfa.o(i.__0snprintf)
    __c89snprintf                            0x08019c99   Thumb Code     0  printfa.o(i.__0snprintf)
    snprintf                                 0x08019c99   Thumb Code     0  printfa.o(i.__0snprintf)
    __aeabi_errno_addr                       0x08019cc9   Thumb Code     4  errno.o(i.__aeabi_errno_addr)
    __rt_errno_addr                          0x08019cc9   Thumb Code     0  errno.o(i.__aeabi_errno_addr)
    __mathlib_narrow                         0x08019cd1   Thumb Code    16  narrow.o(i.__mathlib_narrow)
    __mathlib_tofloat                        0x08019ce1   Thumb Code   184  narrow.o(i.__mathlib_tofloat)
    __scatterload_copy                       0x08019d9d   Thumb Code    14  handlers.o(i.__scatterload_copy)
    __scatterload_null                       0x08019dab   Thumb Code     2  handlers.o(i.__scatterload_null)
    __scatterload_zeroinit                   0x08019dad   Thumb Code    14  handlers.o(i.__scatterload_zeroinit)
    __set_errno                              0x08019dbd   Thumb Code     6  errno.o(i.__set_errno)
    _is_digit                                0x08019f4d   Thumb Code    14  scanf_fp.o(i._is_digit)
    compareStr                               0x0801a759   Thumb Code    26  utils.o(i.compareStr)
    compareStrAndNum                         0x0801a773   Thumb Code   100  utils.o(i.compareStrAndNum)
    composeCompoundCommand                   0x0801a7d7   Thumb Code    76  utils.o(i.composeCompoundCommand)
    fifo_add                                 0x0801a823   Thumb Code    62  fifo.o(i.fifo_add)
    fifo_clear                               0x0801a861   Thumb Code    10  fifo.o(i.fifo_clear)
    fifo_count                               0x0801a86b   Thumb Code     8  fifo.o(i.fifo_count)
    fifo_init                                0x0801a873   Thumb Code    14  fifo.o(i.fifo_init)
    fifo_is_empty                            0x0801a881   Thumb Code    12  fifo.o(i.fifo_is_empty)
    fifo_is_full                             0x0801a88d   Thumb Code    20  fifo.o(i.fifo_is_full)
    fifo_remove                              0x0801a8a1   Thumb Code    60  fifo.o(i.fifo_remove)
    fifo_remove_last                         0x0801a8dd   Thumb Code    60  fifo.o(i.fifo_remove_last)
    frexp                                    0x0801a919   Thumb Code    80  frexp.o(i.frexp)
    i2c_CfgGpio                              0x0801a999   Thumb Code    68  iic_24c01.o(i.i2c_CfgGpio)
    i2c_NAck                                 0x0801a9fd   Thumb Code    50  iic_24c01.o(i.i2c_NAck)
    i2c_ReadByte                             0x0801aa35   Thumb Code    96  iic_24c01.o(i.i2c_ReadByte)
    i2c_SendByte                             0x0801aa99   Thumb Code   116  iic_24c01.o(i.i2c_SendByte)
    i2c_Start                                0x0801ab11   Thumb Code    58  iic_24c01.o(i.i2c_Start)
    i2c_Stop                                 0x0801ab51   Thumb Code    40  iic_24c01.o(i.i2c_Stop)
    i2c_WaitAck                              0x0801ab7d   Thumb Code    68  iic_24c01.o(i.i2c_WaitAck)
    iap_load_app                             0x0801abc5   Thumb Code    36  main.o(i.iap_load_app)
    main                                     0x0801ac21   Thumb Code   240  main.o(i.main)
    matchCommand                             0x0801ad5d   Thumb Code   482  utils.o(i.matchCommand)
    matchPattern                             0x0801af45   Thumb Code   116  utils.o(i.matchPattern)
    scpiLex_ArbitraryBlockProgramData        0x0801b115   Thumb Code   206  lexer.o(i.scpiLex_ArbitraryBlockProgramData)
    scpiLex_CharacterProgramData             0x0801b1e3   Thumb Code   104  lexer.o(i.scpiLex_CharacterProgramData)
    scpiLex_Colon                            0x0801b24b   Thumb Code    36  lexer.o(i.scpiLex_Colon)
    scpiLex_Comma                            0x0801b26f   Thumb Code    36  lexer.o(i.scpiLex_Comma)
    scpiLex_DecimalNumericProgramData        0x0801b293   Thumb Code   126  lexer.o(i.scpiLex_DecimalNumericProgramData)
    scpiLex_IsEos                            0x0801b311   Thumb Code     4  lexer.o(i.scpiLex_IsEos)
    scpiLex_NewLine                          0x0801b315   Thumb Code    58  lexer.o(i.scpiLex_NewLine)
    scpiLex_NondecimalNumericData            0x0801b34f   Thumb Code   250  lexer.o(i.scpiLex_NondecimalNumericData)
    scpiLex_ProgramExpression                0x0801b449   Thumb Code   142  lexer.o(i.scpiLex_ProgramExpression)
    scpiLex_ProgramHeader                    0x0801b4d7   Thumb Code   192  lexer.o(i.scpiLex_ProgramHeader)
    scpiLex_Semicolon                        0x0801b597   Thumb Code    34  lexer.o(i.scpiLex_Semicolon)
    scpiLex_SpecificCharacter                0x0801b5b9   Thumb Code    36  lexer.o(i.scpiLex_SpecificCharacter)
    scpiLex_StringProgramData                0x0801b5dd   Thumb Code   136  lexer.o(i.scpiLex_StringProgramData)
    scpiLex_SuffixProgramData                0x0801b665   Thumb Code   120  lexer.o(i.scpiLex_SuffixProgramData)
    scpiLex_WhiteSpace                       0x0801b6dd   Thumb Code    38  lexer.o(i.scpiLex_WhiteSpace)
    scpiParser_detectProgramMessageUnit      0x0801b705   Thumb Code   182  parser.o(i.scpiParser_detectProgramMessageUnit)
    scpiParser_parseAllProgramData           0x0801b7bb   Thumb Code   114  parser.o(i.scpiParser_parseAllProgramData)
    scpiParser_parseProgramData              0x0801b82d   Thumb Code   140  parser.o(i.scpiParser_parseProgramData)
    skipWhitespace                           0x0801ba51   Thumb Code    40  utils.o(i.skipWhitespace)
    strBaseToInt32                           0x0801ba9f   Thumb Code    20  utils.o(i.strBaseToInt32)
    strBaseToInt64                           0x0801bab3   Thumb Code    22  utils.o(i.strBaseToInt64)
    strBaseToUInt32                          0x0801bac9   Thumb Code    20  utils.o(i.strBaseToUInt32)
    strBaseToUInt64                          0x0801badd   Thumb Code    22  utils.o(i.strBaseToUInt64)
    strToDouble                              0x0801baf3   Thumb Code    22  utils.o(i.strToDouble)
    strToFloat                               0x0801bb09   Thumb Code    20  utils.o(i.strToFloat)
    strnpbrk                                 0x0801bb1d   Thumb Code    42  utils.o(i.strnpbrk)
    strtod                                   0x0801bb47   Thumb Code    28  strtod.o(i.strtod)
    strtof                                   0x0801bb63   Thumb Code    20  strtof.o(i.strtof)
    worke_mode                               0x0801bbf5   Thumb Code   884  menu.o(i.worke_mode)
    scpi_commands                            0x0801bfd8   Data        1164  scpi-def.o(.constdata)
    scpi_bool_def                            0x0801c49c   Data          24  parser.o(.constdata)
    scpi_units_def                           0x0801c4c0   Data         432  units.o(.constdata)
    scpi_special_numbers_def                 0x0801c670   Data          80  units.o(.constdata)
    __ctype_table                            0x0801c6c0   Data         129  ctype_o.o(.constdata)
    Region$$Table$$Base                      0x0801cdec   Number         0  anon$$obj.o(Region$$Table)
    Region$$Table$$Limit                     0x0801ce0c   Number         0  anon$$obj.o(Region$$Table)
    bootflag                                 0x20000014   Data           1  main.o(.data)
    flagA                                    0x20000018   Data           4  main.o(.data)
    jump2app                                 0x2000001c   Data           4  main.o(.data)
    flagB                                    0x20000020   Data           4  main.o(.data)
    flagC                                    0x20000024   Data           4  main.o(.data)
    UART1_Buffer_Rece_flag                   0x20000028   Data           1  stm32f10x_it.o(.data)
    dynaflagA                                0x20000029   Data           1  stm32f10x_it.o(.data)
    dynaflagB                                0x2000002a   Data           1  stm32f10x_it.o(.data)
    timecount                                0x2000002c   Data           4  stm32f10x_it.o(.data)
    testcount                                0x20000030   Data           4  stm32f10x_it.o(.data)
    SystemCoreClock                          0x20000034   Data           4  system_stm32f10x.o(.data)
    AHBPrescTable                            0x20000038   Data          16  system_stm32f10x.o(.data)
    NTC_value                                0x2000004a   Data           2  adc.o(.data)
    NTC1_value                               0x2000004c   Data           2  adc.o(.data)
    Imon_value                               0x2000004e   Data           2  adc.o(.data)
    Vmon_value                               0x20000050   Data           2  adc.o(.data)
    HSEStartUpStatus                         0x20000059   Data           1  clock.o(.data)
    testflag                                 0x2000005c   Data           1  modbus.o(.data)
    dynaonflag                               0x2000005d   Data           1  modbus.o(.data)
    DAC_Flag                                 0x2000005e   Data           1  modbus.o(.data)
    Contr_DACVlue                            0x20000060   Data           2  modbus.o(.data)
    Modify_A_READ                            0x20000064   Data           4  modbus.o(.data)
    Modify_C_READ                            0x20000068   Data           4  modbus.o(.data)
    Modify_A_ACT                             0x2000006c   Data           4  modbus.o(.data)
    Modify_B_READ                            0x20000070   Data           4  modbus.o(.data)
    Modify_D_READ                            0x20000074   Data           4  modbus.o(.data)
    Modify_B_ACT                             0x20000078   Data           4  modbus.o(.data)
    var16                                    0x2000007c   Data           4  modbus.o(.data)
    var32a                                   0x20000080   Data           4  modbus.o(.data)
    var32b                                   0x20000084   Data           4  modbus.o(.data)
    var16a                                   0x20000088   Data           4  modbus.o(.data)
    var32c                                   0x2000008c   Data           4  modbus.o(.data)
    var32d                                   0x20000090   Data           4  modbus.o(.data)
    Transmit_BUFFERsize                      0x20000094   Data           1  usart.o(.data)
    Baud                                     0x20000098   Data           4  usart.o(.data)
    UART_Buffer_Size                         0x2000009c   Data           1  usart.o(.data)
    t_USART                                  0x2000009d   Data           1  usart.o(.data)
    VP_T                                     0x2000009e   Data           2  fan_pro.o(.data)
    IP_T                                     0x200000a0   Data           2  fan_pro.o(.data)
    PR_T1                                    0x200000a2   Data           2  fan_pro.o(.data)
    PR_T2                                    0x200000a4   Data           2  fan_pro.o(.data)
    PR_T3                                    0x200000a6   Data           2  fan_pro.o(.data)
    PR_T4                                    0x200000a8   Data           2  fan_pro.o(.data)
    Von_CONT                                 0x200000ac   Data           1  menu.o(.data)
    oldmode                                  0x200000ad   Data           1  menu.o(.data)
    SWDelay                                  0x200000ae   Data           2  menu.o(.data)
    trigger_source                           0x200000b8   Data          32  scpi-def.o(.data)
    mode_source                              0x200000d8   Data          64  scpi-def.o(.data)
    dynmode_source                           0x20000118   Data          32  scpi-def.o(.data)
    scpi_interface                           0x20000138   Data          20  scpi-def.o(.data)
    ADC1_Buffer                              0x20000150   Data         200  adc.o(.bss)
    ADC_NTC_Filt                             0x20000218   Data         100  adc.o(.bss)
    ADC_NTC1_Filt                            0x2000027c   Data         100  adc.o(.bss)
    Correct_Parametet                        0x200002e0   Data         104  modbus.o(.bss)
    Correct_Strong                           0x20000348   Data         104  modbus.o(.bss)
    coefficient                              0x200003b0   Data          13  modbus.o(.bss)
    Run_Control                              0x200003c0   Data         220  modbus.o(.bss)
    Transition_Date                          0x2000049c   Data          40  modbus.o(.bss)
    UART_Buffer_Rece                         0x200004c4   Data         200  usart.o(.bss)
    UART_Buffer_Send                         0x2000058c   Data         200  usart.o(.bss)
    UART_Buffer_Send1                        0x20000654   Data         200  usart.o(.bss)
    UART_Buffer_Rece1                        0x2000071c   Data         200  usart.o(.bss)
    AD7689_Buffer                            0x200007e4   Data          16  ad7689.o(.bss)
    Ad7689_Fit_Imon                          0x200007f4   Data         200  ad7689.o(.bss)
    Ad7689_Fit_Vmon                          0x200008bc   Data         200  ad7689.o(.bss)
    END_Fit_Imon                             0x20000984   Data          40  ad7689.o(.bss)
    scpi_input_buffer                        0x200009ac   Data         256  scpi-def.o(.bss)
    scpi_error_queue_data                    0x20000aac   Data          34  scpi-def.o(.bss)
    scpi_context                             0x20000ad0   Data         152  scpi-def.o(.bss)
    __initial_sp                             0x20001368   Data           0  startup_stm32f10x_hd.o(STACK)



==============================================================================

Memory Map of the image

  Image Entry point : 0x08010131

  Load Region LR_IROM1 (Base: 0x08010000, Size: 0x0000cf5c, Max: 0x00010000, ABSOLUTE, COMPRESSED[0x0000ce70])

    Execution Region ER_IROM1 (Exec base: 0x08010000, Load base: 0x08010000, Size: 0x0000ce0c, Max: 0x00010000, ABSOLUTE)

    Exec Addr    Load Addr    Size         Type   Attr      Idx    E Section Name        Object

    0x08010000   0x08010000   0x00000130   Data   RO           19    RESET               startup_stm32f10x_hd.o
    0x08010130   0x08010130   0x00000000   Code   RO         5677  * .ARM.Collect$$$$00000000  mc_w.l(entry.o)
    0x08010130   0x08010130   0x00000004   Code   RO         6027    .ARM.Collect$$$$00000001  mc_w.l(entry2.o)
    0x08010134   0x08010134   0x00000004   Code   RO         6030    .ARM.Collect$$$$00000004  mc_w.l(entry5.o)
    0x08010138   0x08010138   0x00000000   Code   RO         6032    .ARM.Collect$$$$00000008  mc_w.l(entry7b.o)
    0x08010138   0x08010138   0x00000000   Code   RO         6034    .ARM.Collect$$$$0000000A  mc_w.l(entry8b.o)
    0x08010138   0x08010138   0x00000008   Code   RO         6035    .ARM.Collect$$$$0000000B  mc_w.l(entry9a.o)
    0x08010140   0x08010140   0x00000000   Code   RO         6037    .ARM.Collect$$$$0000000D  mc_w.l(entry10a.o)
    0x08010140   0x08010140   0x00000000   Code   RO         6039    .ARM.Collect$$$$0000000F  mc_w.l(entry11a.o)
    0x08010140   0x08010140   0x00000004   Code   RO         6028    .ARM.Collect$$$$00002712  mc_w.l(entry2.o)
    0x08010144   0x08010144   0x00000006   Code   RO         3056    .emb_text           main.o
    0x0801014a   0x0801014a   0x00000002   PAD
    0x0801014c   0x0801014c   0x00000024   Code   RO           20    .text               startup_stm32f10x_hd.o
    0x08010170   0x08010170   0x00000062   Code   RO         5680    .text               mc_w.l(uldiv.o)
    0x080101d2   0x080101d2   0x00000002   PAD
    0x080101d4   0x080101d4   0x00000008   Code   RO         5682    .text               mc_w.l(ctype_o.o)
    0x080101dc   0x080101dc   0x00000012   Code   RO         5704    .text               mc_w.l(isspace_o.o)
    0x080101ee   0x080101ee   0x00000040   Code   RO         5712    .text               mc_w.l(memmovea.o)
    0x0801022e   0x0801022e   0x00000024   Code   RO         5714    .text               mc_w.l(memseta.o)
    0x08010252   0x08010252   0x00000018   Code   RO         5716    .text               mc_w.l(strncpy.o)
    0x0801026a   0x0801026a   0x0000000e   Code   RO         5718    .text               mc_w.l(strlen.o)
    0x08010278   0x08010278   0x00000028   Code   RO         5720    .text               mc_w.l(strncat.o)
    0x080102a0   0x080102a0   0x00000032   Code   RO         5728    .text               mc_w.l(strncasecmp.o)
    0x080102d2   0x080102d2   0x00000070   Code   RO         5991    .text               mc_w.l(strtol.o)
    0x08010342   0x08010342   0x00000072   Code   RO         5993    .text               mc_w.l(strtoul.o)
    0x080103b4   0x080103b4   0x00000004   Code   RO         5995    .text               mc_w.l(strtoll.o)
    0x080103b8   0x080103b8   0x00000004   Code   RO         5997    .text               mc_w.l(strtoull.o)
    0x080103bc   0x080103bc   0x000000b0   Code   RO         5999    .text               mf_w.l(fadd.o)
    0x0801046c   0x0801046c   0x00000064   Code   RO         6001    .text               mf_w.l(fmul.o)
    0x080104d0   0x080104d0   0x0000007c   Code   RO         6003    .text               mf_w.l(fdiv.o)
    0x0801054c   0x0801054c   0x0000014e   Code   RO         6005    .text               mf_w.l(dadd.o)
    0x0801069a   0x0801069a   0x000000e4   Code   RO         6007    .text               mf_w.l(dmul.o)
    0x0801077e   0x0801077e   0x000000de   Code   RO         6009    .text               mf_w.l(ddiv.o)
    0x0801085c   0x0801085c   0x0000000a   Code   RO         6011    .text               mf_w.l(ffltui.o)
    0x08010866   0x08010866   0x00000018   Code   RO         6013    .text               mf_w.l(dfltul.o)
    0x0801087e   0x0801087e   0x00000028   Code   RO         6015    .text               mf_w.l(ffixui.o)
    0x080108a6   0x080108a6   0x00000026   Code   RO         6019    .text               mf_w.l(f2d.o)
    0x080108cc   0x080108cc   0x00000030   Code   RO         6021    .text               mf_w.l(cdcmple.o)
    0x080108fc   0x080108fc   0x00000030   Code   RO         6023    .text               mf_w.l(cdrcmple.o)
    0x0801092c   0x0801092c   0x00000014   Code   RO         6025    .text               mf_w.l(cfrcmple.o)
    0x08010940   0x08010940   0x0000002c   Code   RO         6041    .text               mc_w.l(uidiv.o)
    0x0801096c   0x0801096c   0x0000001e   Code   RO         6043    .text               mc_w.l(llshl.o)
    0x0801098a   0x0801098a   0x00000020   Code   RO         6045    .text               mc_w.l(llushr.o)
    0x080109aa   0x080109aa   0x00000024   Code   RO         6047    .text               mc_w.l(llsshr.o)
    0x080109ce   0x080109ce   0x0000000c   Code   RO         6049    .text               mc_w.l(tolower.o)
    0x080109da   0x080109da   0x0000009e   Code   RO         6058    .text               mc_w.l(_strtoul.o)
    0x08010a78   0x08010a78   0x0000009c   Code   RO         6060    .text               mc_w.l(strtod.o)
    0x08010b14   0x08010b14   0x0000001a   Code   RO         6062    .text               mc_w.l(strtof.o)
    0x08010b2e   0x08010b2e   0x00000090   Code   RO         6064    .text               mc_w.l(__strtoll.o)
    0x08010bbe   0x08010bbe   0x0000007c   Code   RO         6066    .text               mc_w.l(__strtoull.o)
    0x08010c3a   0x08010c3a   0x00000000   Code   RO         6068    .text               mc_w.l(iusefp.o)
    0x08010c3a   0x08010c3a   0x0000006e   Code   RO         6069    .text               mf_w.l(fepilogue.o)
    0x08010ca8   0x08010ca8   0x000000ba   Code   RO         6071    .text               mf_w.l(depilogue.o)
    0x08010d62   0x08010d62   0x0000002e   Code   RO         6073    .text               mf_w.l(dscalb.o)
    0x08010d90   0x08010d90   0x00000030   Code   RO         6075    .text               mf_w.l(dfixul.o)
    0x08010dc0   0x08010dc0   0x00000024   Code   RO         6083    .text               mc_w.l(init.o)
    0x08010de4   0x08010de4   0x0000001c   Code   RO         6087    .text               mc_w.l(_chval.o)
    0x08010e00   0x08010e00   0x00000360   Code   RO         6089    .text               mc_w.l(scanf_fp.o)
    0x08011160   0x08011160   0x00000040   Code   RO         6093    .text               mc_w.l(_sgetc.o)
    0x080111a0   0x080111a0   0x000000c2   Code   RO         6095    .text               mc_w.l(_strtoull.o)
    0x08011262   0x08011262   0x00000038   Code   RO         6100    .text               mf_w.l(d2f.o)
    0x0801129a   0x0801129a   0x00000004   Code   RO         6102    .text               mf_w.l(fpstat.o)
    0x0801129e   0x0801129e   0x00000056   Code   RO         6112    .text               mc_w.l(__dczerorl2.o)
    0x080112f4   0x080112f4   0x00000024   Code   RO         3560    i.AD5541_GPIOCoing  dac.o
    0x08011318   0x08011318   0x000000b8   Code   RO         3561    i.AD5541_Send       dac.o
    0x080113d0   0x080113d0   0x0000001e   Code   RO         4007    i.AD7689_Delay      ad7689.o
    0x080113ee   0x080113ee   0x00000002   PAD
    0x080113f0   0x080113f0   0x000000c4   Code   RO         4009    i.AD7689_InitializeSPI2  ad7689.o
    0x080114b4   0x080114b4   0x00000134   Code   RO         4010    i.AD7689_Scan_CH    ad7689.o
    0x080115e8   0x080115e8   0x0000003c   Code   RO         4011    i.AD7689_TransferByte  ad7689.o
    0x08011624   0x08011624   0x00000120   Code   RO         3387    i.ADC1_DMA_Init     adc.o
    0x08011744   0x08011744   0x000000d0   Code   RO         3388    i.ADC_CH_Scan       adc.o
    0x08011814   0x08011814   0x00000014   Code   RO          149    i.ADC_Cmd           stm32f10x_adc.o
    0x08011828   0x08011828   0x00000014   Code   RO          150    i.ADC_DMACmd        stm32f10x_adc.o
    0x0801183c   0x0801183c   0x00000044   Code   RO          151    i.ADC_DeInit        stm32f10x_adc.o
    0x08011880   0x08011880   0x0000000e   Code   RO          157    i.ADC_GetCalibrationStatus  stm32f10x_adc.o
    0x0801188e   0x0801188e   0x0000000e   Code   RO          163    i.ADC_GetResetCalibrationStatus  stm32f10x_adc.o
    0x0801189c   0x0801189c   0x00000048   Code   RO          167    i.ADC_Init          stm32f10x_adc.o
    0x080118e4   0x080118e4   0x00000074   Code   RO          171    i.ADC_RegularChannelConfig  stm32f10x_adc.o
    0x08011958   0x08011958   0x0000000a   Code   RO          172    i.ADC_ResetCalibration  stm32f10x_adc.o
    0x08011962   0x08011962   0x00000014   Code   RO          174    i.ADC_SoftwareStartConvCmd  stm32f10x_adc.o
    0x08011976   0x08011976   0x0000000a   Code   RO          176    i.ADC_StartCalibration  stm32f10x_adc.o
    0x08011980   0x08011980   0x000001c8   Code   RO         3932    i.All_protect       fan_pro.o
    0x08011b48   0x08011b48   0x00000016   Code   RO         5465    i.BSD_strnlen       utils.o
    0x08011b5e   0x08011b5e   0x00000002   PAD
    0x08011b60   0x08011b60   0x00000050   Code   RO         3838    i.Baud_SET          usart.o
    0x08011bb0   0x08011bb0   0x000000a8   Code   RO         3753    i.Bias_Correction   modbus.o
    0x08011c58   0x08011c58   0x00000044   Code   RO         3754    i.Bias_Para         modbus.o
    0x08011c9c   0x08011c9c   0x00000002   Code   RO         3251    i.BusFault_Handler  stm32f10x_it.o
    0x08011c9e   0x08011c9e   0x00000002   PAD
    0x08011ca0   0x08011ca0   0x00000028   Code   RO         4067    i.CCQ               scpi-def.o
    0x08011cc8   0x08011cc8   0x00000040   Code   RO         4068    i.CCSET             scpi-def.o
    0x08011d08   0x08011d08   0x00000028   Code   RO         4069    i.CPQ               scpi-def.o
    0x08011d30   0x08011d30   0x00000028   Code   RO         4070    i.CPROTECTQ         scpi-def.o
    0x08011d58   0x08011d58   0x00000040   Code   RO         4071    i.CPROTECTSET       scpi-def.o
    0x08011d98   0x08011d98   0x00000040   Code   RO         4072    i.CPSET             scpi-def.o
    0x08011dd8   0x08011dd8   0x00000028   Code   RO         4073    i.CRQ               scpi-def.o
    0x08011e00   0x08011e00   0x00000040   Code   RO         4074    i.CRSET             scpi-def.o
    0x08011e40   0x08011e40   0x00000038   Code   RO         4075    i.CURRENTQ          scpi-def.o
    0x08011e78   0x08011e78   0x00000028   Code   RO         4076    i.CVQ               scpi-def.o
    0x08011ea0   0x08011ea0   0x00000040   Code   RO         4077    i.CVSET             scpi-def.o
    0x08011ee0   0x08011ee0   0x0000009c   Code   RO         3958    i.Cont_coeff_LEDMODE  menu.o
    0x08011f7c   0x08011f7c   0x00000020   Code   RO         3389    i.DAM1_ADC_NVIC     adc.o
    0x08011f9c   0x08011f9c   0x00000014   Code   RO         3252    i.DMA1_Channel1_IRQHandler  stm32f10x_it.o
    0x08011fb0   0x08011fb0   0x00000018   Code   RO         3253    i.DMA1_Channel2_IRQHandler  stm32f10x_it.o
    0x08011fc8   0x08011fc8   0x00000018   Code   RO          833    i.DMA_ClearITPendingBit  stm32f10x_dma.o
    0x08011fe0   0x08011fe0   0x00000016   Code   RO          834    i.DMA_Cmd           stm32f10x_dma.o
    0x08011ff6   0x08011ff6   0x00000002   PAD
    0x08011ff8   0x08011ff8   0x000000e4   Code   RO          835    i.DMA_DeInit        stm32f10x_dma.o
    0x080120dc   0x080120dc   0x00000010   Code   RO          839    i.DMA_ITConfig      stm32f10x_dma.o
    0x080120ec   0x080120ec   0x0000003a   Code   RO          840    i.DMA_Init          stm32f10x_dma.o
    0x08012126   0x08012126   0x00000024   Code   RO         4078    i.DMM_ConfigureVoltageDc  scpi-def.o
    0x0801214a   0x0801214a   0x00000002   PAD
    0x0801214c   0x0801214c   0x00000050   Code   RO         4079    i.DMM_MeasureVoltageAcQ  scpi-def.o
    0x0801219c   0x0801219c   0x00000028   Code   RO         4080    i.DYNHDQ            scpi-def.o
    0x080121c4   0x080121c4   0x00000040   Code   RO         4081    i.DYNHDSET          scpi-def.o
    0x08012204   0x08012204   0x00000028   Code   RO         4082    i.DYNHQ             scpi-def.o
    0x0801222c   0x0801222c   0x00000040   Code   RO         4083    i.DYNHSET           scpi-def.o
    0x0801226c   0x0801226c   0x00000028   Code   RO         4084    i.DYNLDQ            scpi-def.o
    0x08012294   0x08012294   0x00000040   Code   RO         4085    i.DYNLDSET          scpi-def.o
    0x080122d4   0x080122d4   0x00000028   Code   RO         4086    i.DYNLQ             scpi-def.o
    0x080122fc   0x080122fc   0x00000040   Code   RO         4087    i.DYNLSET           scpi-def.o
    0x0801233c   0x0801233c   0x00000028   Code   RO         4088    i.DYNMODEQ          scpi-def.o
    0x08012364   0x08012364   0x00000038   Code   RO         4089    i.DYNMODESET        scpi-def.o
    0x0801239c   0x0801239c   0x00000028   Code   RO         4090    i.DYNSLEWFQ         scpi-def.o
    0x080123c4   0x080123c4   0x00000040   Code   RO         4091    i.DYNSLEWFSET       scpi-def.o
    0x08012404   0x08012404   0x00000028   Code   RO         4092    i.DYNSLEWQ          scpi-def.o
    0x0801242c   0x0801242c   0x00000028   Code   RO         4093    i.DYNSLEWRQ         scpi-def.o
    0x08012454   0x08012454   0x00000040   Code   RO         4094    i.DYNSLEWRSET       scpi-def.o
    0x08012494   0x08012494   0x00000044   Code   RO         4095    i.DYNSLEWSET        scpi-def.o
    0x080124d8   0x080124d8   0x00000002   Code   RO         3254    i.DebugMon_Handler  stm32f10x_it.o
    0x080124da   0x080124da   0x00000002   PAD
    0x080124dc   0x080124dc   0x00000050   Code   RO         3491    i.EEPROM_READ_Byte  at24c01.o
    0x0801252c   0x0801252c   0x00000d74   Code   RO         3578    i.EEPROM_READ_Coeff  flash.o
    0x080132a0   0x080132a0   0x0000006c   Code   RO         3492    i.EEPROM_WriteByte  at24c01.o
    0x0801330c   0x0801330c   0x00000018   Code   RO          975    i.FLASH_PrefetchBufferCmd  stm32f10x_flash.o
    0x08013324   0x08013324   0x00000014   Code   RO          980    i.FLASH_SetLatency  stm32f10x_flash.o
    0x08013338   0x08013338   0x00000dde   Code   RO         3579    i.Flash_Write_all   flash.o
    0x08014116   0x08014116   0x00000016   Code   RO         1250    i.GPIO_AFIODeInit   stm32f10x_gpio.o
    0x0801412c   0x0801412c   0x0000009c   Code   RO         3640    i.GPIO_Conf         gpio.o
    0x080141c8   0x080141c8   0x000000b4   Code   RO         1251    i.GPIO_DeInit       stm32f10x_gpio.o
    0x0801427c   0x0801427c   0x000000a2   Code   RO         1256    i.GPIO_Init         stm32f10x_gpio.o
    0x0801431e   0x0801431e   0x00000002   PAD
    0x08014320   0x08014320   0x00000058   Code   RO         1258    i.GPIO_PinRemapConfig  stm32f10x_gpio.o
    0x08014378   0x08014378   0x0000000e   Code   RO         1260    i.GPIO_ReadInputDataBit  stm32f10x_gpio.o
    0x08014386   0x08014386   0x00000004   Code   RO         1263    i.GPIO_ResetBits    stm32f10x_gpio.o
    0x0801438a   0x0801438a   0x00000004   Code   RO         1264    i.GPIO_SetBits      stm32f10x_gpio.o
    0x0801438e   0x0801438e   0x00000002   Code   RO         3255    i.HardFault_Handler  stm32f10x_it.o
    0x08014390   0x08014390   0x0000007c   Code   RO         3755    i.Hardware_CRC      modbus.o
    0x0801440c   0x0801440c   0x0000001c   Code   RO         4096    i.INPUTQ            scpi-def.o
    0x08014428   0x08014428   0x00000030   Code   RO         4097    i.INPUTSET          scpi-def.o
    0x08014458   0x08014458   0x0000001c   Code   RO         4098    i.IRANGEQ           scpi-def.o
    0x08014474   0x08014474   0x00000030   Code   RO         4099    i.IRANGESET         scpi-def.o
    0x080144a4   0x080144a4   0x00000028   Code   RO         4100    i.ISLEWFQ           scpi-def.o
    0x080144cc   0x080144cc   0x00000040   Code   RO         4101    i.ISLEWFSET         scpi-def.o
    0x0801450c   0x0801450c   0x00000028   Code   RO         4102    i.ISLEWQ            scpi-def.o
    0x08014534   0x08014534   0x00000028   Code   RO         4103    i.ISLEWRQ           scpi-def.o
    0x0801455c   0x0801455c   0x00000040   Code   RO         4104    i.ISLEWRSET         scpi-def.o
    0x0801459c   0x0801459c   0x00000044   Code   RO         4105    i.ISLEWSET          scpi-def.o
    0x080145e0   0x080145e0   0x00000010   Code   RO         1568    i.IWDG_Enable       stm32f10x_iwdg.o
    0x080145f0   0x080145f0   0x00000022   Code   RO         3717    i.IWDG_Inte         iwdg.o
    0x08014612   0x08014612   0x00000002   PAD
    0x08014614   0x08014614   0x00000010   Code   RO         1570    i.IWDG_ReloadCounter  stm32f10x_iwdg.o
    0x08014624   0x08014624   0x0000000c   Code   RO         1571    i.IWDG_SetPrescaler  stm32f10x_iwdg.o
    0x08014630   0x08014630   0x0000000c   Code   RO         1572    i.IWDG_SetReload    stm32f10x_iwdg.o
    0x0801463c   0x0801463c   0x0000000c   Code   RO         1573    i.IWDG_WriteAccessCmd  stm32f10x_iwdg.o
    0x08014648   0x08014648   0x000000a0   Code   RO         3959    i.I_SW_COTNR        menu.o
    0x080146e8   0x080146e8   0x00000028   Code   RO         4106    i.MODEQ             scpi-def.o
    0x08014710   0x08014710   0x00000038   Code   RO         4107    i.MODESET           scpi-def.o
    0x08014748   0x08014748   0x00000002   Code   RO         3256    i.MemManage_Handler  stm32f10x_it.o
    0x0801474a   0x0801474a   0x0000000c   Code   RO         4108    i.My_CoreTstQ       scpi-def.o
    0x08014756   0x08014756   0x00000002   Code   RO         3257    i.NMI_Handler       stm32f10x_it.o
    0x08014758   0x08014758   0x00000064   Code   RO           24    i.NVIC_Init         misc.o
    0x080147bc   0x080147bc   0x00000014   Code   RO           25    i.NVIC_PriorityGroupConfig  misc.o
    0x080147d0   0x080147d0   0x00000014   Code   RO           26    i.NVIC_SetVectorTable  misc.o
    0x080147e4   0x080147e4   0x00000028   Code   RO         4109    i.POWERQ            scpi-def.o
    0x0801480c   0x0801480c   0x00000028   Code   RO         4110    i.PPROTECTQ         scpi-def.o
    0x08014834   0x08014834   0x00000040   Code   RO         4111    i.PPROTECTSET       scpi-def.o
    0x08014874   0x08014874   0x00000058   Code   RO         4986    i.ParamSignToUInt32  parser.o
    0x080148cc   0x080148cc   0x00000058   Code   RO         4987    i.ParamSignToUInt64  parser.o
    0x08014924   0x08014924   0x00000054   Code   RO         4988    i.ParamSignUInt32   parser.o
    0x08014978   0x08014978   0x00000014   Code   RO         1670    i.RCC_ADCCLKConfig  stm32f10x_rcc.o
    0x0801498c   0x0801498c   0x00000018   Code   RO         1671    i.RCC_AHBPeriphClockCmd  stm32f10x_rcc.o
    0x080149a4   0x080149a4   0x00000018   Code   RO         1672    i.RCC_APB1PeriphClockCmd  stm32f10x_rcc.o
    0x080149bc   0x080149bc   0x00000018   Code   RO         1674    i.RCC_APB2PeriphClockCmd  stm32f10x_rcc.o
    0x080149d4   0x080149d4   0x00000018   Code   RO         1675    i.RCC_APB2PeriphResetCmd  stm32f10x_rcc.o
    0x080149ec   0x080149ec   0x0000006c   Code   RO         3541    i.RCC_Configuration  clock.o
    0x08014a58   0x08014a58   0x00000040   Code   RO         1681    i.RCC_DeInit        stm32f10x_rcc.o
    0x08014a98   0x08014a98   0x00000090   Code   RO         1682    i.RCC_GetClocksFreq  stm32f10x_rcc.o
    0x08014b28   0x08014b28   0x00000030   Code   RO         1683    i.RCC_GetFlagStatus  stm32f10x_rcc.o
    0x08014b58   0x08014b58   0x00000010   Code   RO         1685    i.RCC_GetSYSCLKSource  stm32f10x_rcc.o
    0x08014b68   0x08014b68   0x00000014   Code   RO         1686    i.RCC_HCLKConfig    stm32f10x_rcc.o
    0x08014b7c   0x08014b7c   0x00000034   Code   RO         1687    i.RCC_HSEConfig     stm32f10x_rcc.o
    0x08014bb0   0x08014bb0   0x00000014   Code   RO         1693    i.RCC_PCLK1Config   stm32f10x_rcc.o
    0x08014bc4   0x08014bc4   0x00000014   Code   RO         1694    i.RCC_PCLK2Config   stm32f10x_rcc.o
    0x08014bd8   0x08014bd8   0x0000000c   Code   RO         1695    i.RCC_PLLCmd        stm32f10x_rcc.o
    0x08014be4   0x08014be4   0x00000014   Code   RO         1696    i.RCC_PLLConfig     stm32f10x_rcc.o
    0x08014bf8   0x08014bf8   0x00000014   Code   RO         1699    i.RCC_SYSCLKConfig  stm32f10x_rcc.o
    0x08014c0c   0x08014c0c   0x0000002c   Code   RO         1701    i.RCC_WaitForHSEStartUp  stm32f10x_rcc.o
    0x08014c38   0x08014c38   0x0000001c   Code   RO         4112    i.REMOTEQ           scpi-def.o
    0x08014c54   0x08014c54   0x00000030   Code   RO         4113    i.REMOTESET         scpi-def.o
    0x08014c84   0x08014c84   0x00000028   Code   RO         4114    i.RESQ              scpi-def.o
    0x08014cac   0x08014cac   0x0000002a   Code   RO         4990    i.SCPI_ChoiceToName  parser.o
    0x08014cd6   0x08014cd6   0x00000018   Code   RO         4992    i.SCPI_CommandNumbers  parser.o
    0x08014cee   0x08014cee   0x00000026   Code   RO         4609    i.SCPI_CoreCls      ieee488.o
    0x08014d14   0x08014d14   0x00000024   Code   RO         4610    i.SCPI_CoreEse      ieee488.o
    0x08014d38   0x08014d38   0x00000016   Code   RO         4611    i.SCPI_CoreEseQ     ieee488.o
    0x08014d4e   0x08014d4e   0x00000020   Code   RO         4612    i.SCPI_CoreEsrQ     ieee488.o
    0x08014d6e   0x08014d6e   0x00000002   PAD
    0x08014d70   0x08014d70   0x00000038   Code   RO         4613    i.SCPI_CoreIdnQ     ieee488.o
    0x08014da8   0x08014da8   0x0000000e   Code   RO         4614    i.SCPI_CoreOpc      ieee488.o
    0x08014db6   0x08014db6   0x0000000c   Code   RO         4615    i.SCPI_CoreOpcQ     ieee488.o
    0x08014dc2   0x08014dc2   0x00000010   Code   RO         4616    i.SCPI_CoreRst      ieee488.o
    0x08014dd2   0x08014dd2   0x00000024   Code   RO         4617    i.SCPI_CoreSre      ieee488.o
    0x08014df6   0x08014df6   0x00000016   Code   RO         4618    i.SCPI_CoreSreQ     ieee488.o
    0x08014e0c   0x08014e0c   0x00000016   Code   RO         4619    i.SCPI_CoreStbQ     ieee488.o
    0x08014e22   0x08014e22   0x00000004   Code   RO         4621    i.SCPI_CoreWai      ieee488.o
    0x08014e26   0x08014e26   0x00000002   PAD
    0x08014e28   0x08014e28   0x00000024   Code   RO         5466    i.SCPI_DoubleToStr  utils.o
    0x08014e4c   0x08014e4c   0x00000014   Code   RO         4428    i.SCPI_ErrorClear   error.o
    0x08014e60   0x08014e60   0x00000016   Code   RO         4429    i.SCPI_ErrorCount   error.o
    0x08014e76   0x08014e76   0x00000026   Code   RO         4430    i.SCPI_ErrorEmit    error.o
    0x08014e9c   0x08014e9c   0x0000003a   Code   RO         4431    i.SCPI_ErrorEmitEmpty  error.o
    0x08014ed6   0x08014ed6   0x00000006   Code   RO         4432    i.SCPI_ErrorInit    error.o
    0x08014edc   0x08014edc   0x00000022   Code   RO         4433    i.SCPI_ErrorPop     error.o
    0x08014efe   0x08014efe   0x00000008   Code   RO         4434    i.SCPI_ErrorPush    error.o
    0x08014f06   0x08014f06   0x00000002   PAD
    0x08014f08   0x08014f08   0x000000ac   Code   RO         4435    i.SCPI_ErrorPushEx  error.o
    0x08014fb4   0x08014fb4   0x000001e8   Code   RO         4436    i.SCPI_ErrorTranslate  error.o
    0x0801519c   0x0801519c   0x00000008   Code   RO         4622    i.SCPI_EventClear   ieee488.o
    0x080151a4   0x080151a4   0x000000d8   Code   RO         4494    i.SCPI_ExprChannelListEntry  expression.o
    0x0801527c   0x0801527c   0x00000028   Code   RO         5467    i.SCPI_FloatToStr   utils.o
    0x080152a4   0x080152a4   0x0000004e   Code   RO         4993    i.SCPI_Init         parser.o
    0x080152f2   0x080152f2   0x000000ae   Code   RO         4994    i.SCPI_Input        parser.o
    0x080153a0   0x080153a0   0x000000cc   Code   RO         5433    i.SCPI_NumberToStr  units.o
    0x0801546c   0x0801546c   0x00000044   Code   RO         4997    i.SCPI_ParamArbitraryBlock  parser.o
    0x080154b0   0x080154b0   0x00000058   Code   RO         5004    i.SCPI_ParamBool    parser.o
    0x08015508   0x08015508   0x00000034   Code   RO         5006    i.SCPI_ParamChoice  parser.o
    0x0801553c   0x0801553c   0x0000007c   Code   RO         5007    i.SCPI_ParamCopyText  parser.o
    0x080155b8   0x080155b8   0x00000058   Code   RO         5008    i.SCPI_ParamDouble  parser.o
    0x08015610   0x08015610   0x00000058   Code   RO         5010    i.SCPI_ParamFloat   parser.o
    0x08015668   0x08015668   0x00000006   Code   RO         5011    i.SCPI_ParamInt32   parser.o
    0x0801566e   0x0801566e   0x0000001e   Code   RO         5013    i.SCPI_ParamIsNumber  parser.o
    0x0801568c   0x0801568c   0x000000ec   Code   RO         5434    i.SCPI_ParamNumber  units.o
    0x08015778   0x08015778   0x0000007c   Code   RO         5015    i.SCPI_ParamToChoice  parser.o
    0x080157f4   0x080157f4   0x00000050   Code   RO         5016    i.SCPI_ParamToDouble  parser.o
    0x08015844   0x08015844   0x0000004c   Code   RO         5017    i.SCPI_ParamToFloat  parser.o
    0x08015890   0x08015890   0x00000006   Code   RO         5018    i.SCPI_ParamToInt32  parser.o
    0x08015896   0x08015896   0x00000006   Code   RO         5020    i.SCPI_ParamToUInt32  parser.o
    0x0801589c   0x0801589c   0x00000006   Code   RO         5021    i.SCPI_ParamToUInt64  parser.o
    0x080158a2   0x080158a2   0x00000006   Code   RO         5022    i.SCPI_ParamUInt32  parser.o
    0x080158a8   0x080158a8   0x0000009c   Code   RO         5024    i.SCPI_Parameter    parser.o
    0x08015944   0x08015944   0x00000118   Code   RO         5025    i.SCPI_Parse        parser.o
    0x08015a5c   0x08015a5c   0x0000001a   Code   RO         4623    i.SCPI_RegClearBits  ieee488.o
    0x08015a76   0x08015a76   0x00000014   Code   RO         4624    i.SCPI_RegGet       ieee488.o
    0x08015a8a   0x08015a8a   0x000000c2   Code   RO         4625    i.SCPI_RegSet       ieee488.o
    0x08015b4c   0x08015b4c   0x00000018   Code   RO         4626    i.SCPI_RegSetBits   ieee488.o
    0x08015b64   0x08015b64   0x00000022   Code   RO         5026    i.SCPI_ResultArbitraryBlock  parser.o
    0x08015b86   0x08015b86   0x00000002   PAD
    0x08015b88   0x08015b88   0x00000030   Code   RO         5027    i.SCPI_ResultArbitraryBlockData  parser.o
    0x08015bb8   0x08015bb8   0x00000038   Code   RO         5028    i.SCPI_ResultArbitraryBlockHeader  parser.o
    0x08015bf0   0x08015bf0   0x00000026   Code   RO         5040    i.SCPI_ResultCharacters  parser.o
    0x08015c16   0x08015c16   0x00000034   Code   RO         5041    i.SCPI_ResultDouble  parser.o
    0x08015c4a   0x08015c4a   0x00000002   PAD
    0x08015c4c   0x08015c4c   0x000000f0   Code   RO         5042    i.SCPI_ResultError  parser.o
    0x08015d3c   0x08015d3c   0x00000032   Code   RO         5043    i.SCPI_ResultFloat  parser.o
    0x08015d6e   0x08015d6e   0x00000008   Code   RO         5044    i.SCPI_ResultInt32  parser.o
    0x08015d76   0x08015d76   0x0000000e   Code   RO         4900    i.SCPI_StatusPreset  minimal.o
    0x08015d84   0x08015d84   0x0000001e   Code   RO         4902    i.SCPI_StatusQuestionableEnable  minimal.o
    0x08015da2   0x08015da2   0x00000016   Code   RO         4903    i.SCPI_StatusQuestionableEnableQ  minimal.o
    0x08015db8   0x08015db8   0x00000020   Code   RO         4904    i.SCPI_StatusQuestionableEventQ  minimal.o
    0x08015dd8   0x08015dd8   0x0000000c   Code   RO         4906    i.SCPI_StubQ        minimal.o
    0x08015de4   0x08015de4   0x00000014   Code   RO         4907    i.SCPI_SystemErrorCountQ  minimal.o
    0x08015df8   0x08015df8   0x00000016   Code   RO         4908    i.SCPI_SystemErrorNextQ  minimal.o
    0x08015e0e   0x08015e0e   0x00000002   PAD
    0x08015e10   0x08015e10   0x00000018   Code   RO         4909    i.SCPI_SystemVersionQ  minimal.o
    0x08015e28   0x08015e28   0x0000000c   Code   RO         5474    i.SCPI_UInt32ToStrBase  utils.o
    0x08015e34   0x08015e34   0x00000034   Code   RO         3062    i.SCPI_Write        main.o
    0x08015e68   0x08015e68   0x00000068   Code   RO         4012    i.SPI_AD7689_Read   ad7689.o
    0x08015ed0   0x08015ed0   0x00000014   Code   RO         2150    i.SPI_Cmd           stm32f10x_spi.o
    0x08015ee4   0x08015ee4   0x0000000e   Code   RO         2158    i.SPI_I2S_GetFlagStatus  stm32f10x_spi.o
    0x08015ef2   0x08015ef2   0x00000004   Code   RO         2161    i.SPI_I2S_ReceiveData  stm32f10x_spi.o
    0x08015ef6   0x08015ef6   0x00000004   Code   RO         2162    i.SPI_I2S_SendData  stm32f10x_spi.o
    0x08015efa   0x08015efa   0x00000038   Code   RO         2163    i.SPI_Init          stm32f10x_spi.o
    0x08015f32   0x08015f32   0x00000002   Code   RO         3258    i.SVC_Handler       stm32f10x_it.o
    0x08015f34   0x08015f34   0x00000020   Code   RO         3961    i.Sence_SW_CONT     menu.o
    0x08015f54   0x08015f54   0x000000a8   Code   RO         3358    i.SetSysClockTo72   system_stm32f10x.o
    0x08015ffc   0x08015ffc   0x00000038   Code   RO         3259    i.SysTick_Handler   stm32f10x_it.o
    0x08016034   0x08016034   0x00000044   Code   RO         3458    i.SysTick_Init      bsp_systick.o
    0x08016078   0x08016078   0x00000054   Code   RO         3360    i.SystemInit        system_stm32f10x.o
    0x080160cc   0x080160cc   0x0000001e   Code   RO         4115    i.TEST_ArbQ         scpi-def.o
    0x080160ea   0x080160ea   0x00000016   Code   RO         4116    i.TEST_Bool         scpi-def.o
    0x08016100   0x08016100   0x0000014a   Code   RO         4117    i.TEST_Chanlst      scpi-def.o
    0x0801624a   0x0801624a   0x00000002   PAD
    0x0801624c   0x0801624c   0x00000030   Code   RO         4118    i.TEST_ChoiceQ      scpi-def.o
    0x0801627c   0x0801627c   0x00000010   Code   RO         4119    i.TEST_Numbers      scpi-def.o
    0x0801628c   0x0801628c   0x0000001e   Code   RO         4120    i.TEST_Text         scpi-def.o
    0x080162aa   0x080162aa   0x00000002   PAD
    0x080162ac   0x080162ac   0x0000008c   Code   RO         3260    i.TIM4_IRQHandler   stm32f10x_it.o
    0x08016338   0x08016338   0x0000005c   Code   RO         3826    i.TIM6_Config       tim6.o
    0x08016394   0x08016394   0x00000006   Code   RO         2298    i.TIM_ClearITPendingBit  stm32f10x_tim.o
    0x0801639a   0x0801639a   0x00000014   Code   RO         2303    i.TIM_Cmd           stm32f10x_tim.o
    0x080163ae   0x080163ae   0x00000010   Code   RO         2328    i.TIM_ITConfig      stm32f10x_tim.o
    0x080163be   0x080163be   0x00000002   PAD
    0x080163c0   0x080163c0   0x0000009c   Code   RO         2374    i.TIM_TimeBaseInit  stm32f10x_tim.o
    0x0801645c   0x0801645c   0x0000004c   Code   RO         3933    i.Temp_Comapre      fan_pro.o
    0x080164a8   0x080164a8   0x00000014   Code   RO         3459    i.TimingDelay_Decrement  bsp_systick.o
    0x080164bc   0x080164bc   0x00000f38   Code   RO         3757    i.Transformation_ADC  modbus.o
    0x080173f4   0x080173f4   0x000003cc   Code   RO         3758    i.UART1_Action      modbus.o
    0x080177c0   0x080177c0   0x0000005c   Code   RO         3840    i.UART1_Send        usart.o
    0x0801781c   0x0801781c   0x0000005c   Code   RO         3841    i.UART2_Send        usart.o
    0x08017878   0x08017878   0x000003cc   Code   RO         3759    i.UART3_Action      modbus.o
    0x08017c44   0x08017c44   0x0000005c   Code   RO         3842    i.UART3_Send        usart.o
    0x08017ca0   0x08017ca0   0x00001574   Code   RO         3760    i.UART_Action       modbus.o
    0x08019214   0x08019214   0x000000c8   Code   RO         5477    i.UInt32ToStrBaseSign  utils.o
    0x080192dc   0x080192dc   0x0000017c   Code   RO         3261    i.USART1_IRQHandler  stm32f10x_it.o
    0x08019458   0x08019458   0x0000005c   Code   RO         3843    i.USART1_NVIC_Config  usart.o
    0x080194b4   0x080194b4   0x00000094   Code   RO         3844    i.USART2_Configuration  usart.o
    0x08019548   0x08019548   0x0000010c   Code   RO         3262    i.USART2_IRQHandler  stm32f10x_it.o
    0x08019654   0x08019654   0x00000098   Code   RO         3845    i.USART3_Configuration  usart.o
    0x080196ec   0x080196ec   0x0000011c   Code   RO         3263    i.USART3_IRQHandler  stm32f10x_it.o
    0x08019808   0x08019808   0x00000006   Code   RO         2822    i.USART_ClearFlag   stm32f10x_usart.o
    0x0801980e   0x0801980e   0x0000000c   Code   RO         2823    i.USART_ClearITPendingBit  stm32f10x_usart.o
    0x0801981a   0x0801981a   0x00000014   Code   RO         2826    i.USART_Cmd         stm32f10x_usart.o
    0x0801982e   0x0801982e   0x00000002   PAD
    0x08019830   0x08019830   0x000000a8   Code   RO         3846    i.USART_Configuration  usart.o
    0x080198d8   0x080198d8   0x0000000e   Code   RO         2829    i.USART_GetFlagStatus  stm32f10x_usart.o
    0x080198e6   0x080198e6   0x0000003e   Code   RO         2830    i.USART_GetITStatus  stm32f10x_usart.o
    0x08019924   0x08019924   0x00000030   Code   RO         2832    i.USART_ITConfig    stm32f10x_usart.o
    0x08019954   0x08019954   0x000000ac   Code   RO         2833    i.USART_Init        stm32f10x_usart.o
    0x08019a00   0x08019a00   0x00000008   Code   RO         2840    i.USART_ReceiveData  stm32f10x_usart.o
    0x08019a08   0x08019a08   0x00000008   Code   RO         2843    i.USART_SendData    stm32f10x_usart.o
    0x08019a10   0x08019a10   0x00000002   Code   RO         3264    i.UsageFault_Handler  stm32f10x_it.o
    0x08019a12   0x08019a12   0x00000002   PAD
    0x08019a14   0x08019a14   0x00000028   Code   RO         4121    i.VOFFQ             scpi-def.o
    0x08019a3c   0x08019a3c   0x00000040   Code   RO         4122    i.VOFFSET           scpi-def.o
    0x08019a7c   0x08019a7c   0x00000038   Code   RO         4123    i.VOLTAGEQ          scpi-def.o
    0x08019ab4   0x08019ab4   0x00000028   Code   RO         4124    i.VONQ              scpi-def.o
    0x08019adc   0x08019adc   0x00000040   Code   RO         4125    i.VONSET            scpi-def.o
    0x08019b1c   0x08019b1c   0x00000028   Code   RO         4126    i.VPROTECTQ         scpi-def.o
    0x08019b44   0x08019b44   0x00000040   Code   RO         4127    i.VPROTECTSET       scpi-def.o
    0x08019b84   0x08019b84   0x0000001c   Code   RO         4128    i.VRANGEQ           scpi-def.o
    0x08019ba0   0x08019ba0   0x00000030   Code   RO         4129    i.VRANGESET         scpi-def.o
    0x08019bd0   0x08019bd0   0x00000058   Code   RO         3962    i.V_SW_COTNR        menu.o
    0x08019c28   0x08019c28   0x0000004c   Code   RO         3583    i.Write_ADDR        flash.o
    0x08019c74   0x08019c74   0x00000010   Code   RO         3584    i.Write_bootflag    flash.o
    0x08019c84   0x08019c84   0x00000014   Code   RO         3585    i.Write_bootmode    flash.o
    0x08019c98   0x08019c98   0x00000030   Code   RO         5964    i.__0snprintf       mc_w.l(printfa.o)
    0x08019cc8   0x08019cc8   0x00000008   Code   RO         6051    i.__aeabi_errno_addr  mc_w.l(errno.o)
    0x08019cd0   0x08019cd0   0x00000010   Code   RO         6077    i.__mathlib_narrow  m_ws.l(narrow.o)
    0x08019ce0   0x08019ce0   0x000000bc   Code   RO         6078    i.__mathlib_tofloat  m_ws.l(narrow.o)
    0x08019d9c   0x08019d9c   0x0000000e   Code   RO         6106    i.__scatterload_copy  mc_w.l(handlers.o)
    0x08019daa   0x08019daa   0x00000002   Code   RO         6107    i.__scatterload_null  mc_w.l(handlers.o)
    0x08019dac   0x08019dac   0x0000000e   Code   RO         6108    i.__scatterload_zeroinit  mc_w.l(handlers.o)
    0x08019dba   0x08019dba   0x00000002   PAD
    0x08019dbc   0x08019dbc   0x0000000c   Code   RO         6053    i.__set_errno       mc_w.l(errno.o)
    0x08019dc8   0x08019dc8   0x00000184   Code   RO         5970    i._fp_digits        mc_w.l(printfa.o)
    0x08019f4c   0x08019f4c   0x0000000e   Code   RO         6091    i._is_digit         mc_w.l(scanf_fp.o)
    0x08019f5a   0x08019f5a   0x00000002   PAD
    0x08019f5c   0x08019f5c   0x000006dc   Code   RO         5971    i._printf_core      mc_w.l(printfa.o)
    0x0801a638   0x0801a638   0x00000024   Code   RO         5972    i._printf_post_padding  mc_w.l(printfa.o)
    0x0801a65c   0x0801a65c   0x0000002e   Code   RO         5973    i._printf_pre_padding  mc_w.l(printfa.o)
    0x0801a68a   0x0801a68a   0x00000016   Code   RO         5974    i._snputc           mc_w.l(printfa.o)
    0x0801a6a0   0x0801a6a0   0x0000006c   Code   RO         4498    i.channelRange      expression.o
    0x0801a70c   0x0801a70c   0x0000004c   Code   RO         4499    i.channelSpec       expression.o
    0x0801a758   0x0801a758   0x0000001a   Code   RO         5480    i.compareStr        utils.o
    0x0801a772   0x0801a772   0x00000064   Code   RO         5481    i.compareStrAndNum  utils.o
    0x0801a7d6   0x0801a7d6   0x0000004c   Code   RO         5482    i.composeCompoundCommand  utils.o
    0x0801a822   0x0801a822   0x0000003e   Code   RO         4553    i.fifo_add          fifo.o
    0x0801a860   0x0801a860   0x0000000a   Code   RO         4554    i.fifo_clear        fifo.o
    0x0801a86a   0x0801a86a   0x00000008   Code   RO         4555    i.fifo_count        fifo.o
    0x0801a872   0x0801a872   0x0000000e   Code   RO         4556    i.fifo_init         fifo.o
    0x0801a880   0x0801a880   0x0000000c   Code   RO         4557    i.fifo_is_empty     fifo.o
    0x0801a88c   0x0801a88c   0x00000014   Code   RO         4558    i.fifo_is_full      fifo.o
    0x0801a8a0   0x0801a8a0   0x0000003c   Code   RO         4559    i.fifo_remove       fifo.o
    0x0801a8dc   0x0801a8dc   0x0000003c   Code   RO         4560    i.fifo_remove_last  fifo.o
    0x0801a918   0x0801a918   0x00000058   Code   RO         5662    i.frexp             m_ws.l(frexp.o)
    0x0801a970   0x0801a970   0x00000028   Code   RO         5049    i.getBasePrefix     parser.o
    0x0801a998   0x0801a998   0x00000048   Code   RO         3653    i.i2c_CfgGpio       iic_24c01.o
    0x0801a9e0   0x0801a9e0   0x0000001a   Code   RO         3655    i.i2c_Delay         iic_24c01.o
    0x0801a9fa   0x0801a9fa   0x00000002   PAD
    0x0801a9fc   0x0801a9fc   0x00000038   Code   RO         3656    i.i2c_NAck          iic_24c01.o
    0x0801aa34   0x0801aa34   0x00000064   Code   RO         3657    i.i2c_ReadByte      iic_24c01.o
    0x0801aa98   0x0801aa98   0x00000078   Code   RO         3658    i.i2c_SendByte      iic_24c01.o
    0x0801ab10   0x0801ab10   0x00000040   Code   RO         3659    i.i2c_Start         iic_24c01.o
    0x0801ab50   0x0801ab50   0x0000002c   Code   RO         3660    i.i2c_Stop          iic_24c01.o
    0x0801ab7c   0x0801ab7c   0x00000048   Code   RO         3661    i.i2c_WaitAck       iic_24c01.o
    0x0801abc4   0x0801abc4   0x0000002c   Code   RO         3063    i.iap_load_app      main.o
    0x0801abf0   0x0801abf0   0x0000000c   Code   RO         5050    i.invalidateToken   parser.o
    0x0801abfc   0x0801abfc   0x00000010   Code   RO         4739    i.ischr             lexer.o
    0x0801ac0c   0x0801ac0c   0x00000014   Code   RO         4740    i.iseos             lexer.o
    0x0801ac20   0x0801ac20   0x0000013c   Code   RO         3064    i.main              main.o
    0x0801ad5c   0x0801ad5c   0x000001e8   Code   RO         5483    i.matchCommand      utils.o
    0x0801af44   0x0801af44   0x00000074   Code   RO         5484    i.matchPattern      utils.o
    0x0801afb8   0x0801afb8   0x00000020   Code   RO         5485    i.patternSeparatorPos  utils.o
    0x0801afd8   0x0801afd8   0x0000002a   Code   RO         5486    i.patternSeparatorShortPos  utils.o
    0x0801b002   0x0801b002   0x00000066   Code   RO         5051    i.processCommand    parser.o
    0x0801b068   0x0801b068   0x00000018   Code   RO         4627    i.regUpdate         ieee488.o
    0x0801b080   0x0801b080   0x0000001c   Code   RO         4628    i.regUpdateEvent    ieee488.o
    0x0801b09c   0x0801b09c   0x0000002a   Code   RO         4629    i.regUpdateSTB      ieee488.o
    0x0801b0c6   0x0801b0c6   0x0000004e   Code   RO         5053    i.resultUInt32BaseSign  parser.o
    0x0801b114   0x0801b114   0x000000ce   Code   RO         4741    i.scpiLex_ArbitraryBlockProgramData  lexer.o
    0x0801b1e2   0x0801b1e2   0x00000068   Code   RO         4742    i.scpiLex_CharacterProgramData  lexer.o
    0x0801b24a   0x0801b24a   0x00000024   Code   RO         4743    i.scpiLex_Colon     lexer.o
    0x0801b26e   0x0801b26e   0x00000024   Code   RO         4744    i.scpiLex_Comma     lexer.o
    0x0801b292   0x0801b292   0x0000007e   Code   RO         4745    i.scpiLex_DecimalNumericProgramData  lexer.o
    0x0801b310   0x0801b310   0x00000004   Code   RO         4746    i.scpiLex_IsEos     lexer.o
    0x0801b314   0x0801b314   0x0000003a   Code   RO         4747    i.scpiLex_NewLine   lexer.o
    0x0801b34e   0x0801b34e   0x000000fa   Code   RO         4748    i.scpiLex_NondecimalNumericData  lexer.o
    0x0801b448   0x0801b448   0x0000008e   Code   RO         4749    i.scpiLex_ProgramExpression  lexer.o
    0x0801b4d6   0x0801b4d6   0x000000c0   Code   RO         4750    i.scpiLex_ProgramHeader  lexer.o
    0x0801b596   0x0801b596   0x00000022   Code   RO         4751    i.scpiLex_Semicolon  lexer.o
    0x0801b5b8   0x0801b5b8   0x00000024   Code   RO         4752    i.scpiLex_SpecificCharacter  lexer.o
    0x0801b5dc   0x0801b5dc   0x00000088   Code   RO         4753    i.scpiLex_StringProgramData  lexer.o
    0x0801b664   0x0801b664   0x00000078   Code   RO         4754    i.scpiLex_SuffixProgramData  lexer.o
    0x0801b6dc   0x0801b6dc   0x00000026   Code   RO         4755    i.scpiLex_WhiteSpace  lexer.o
    0x0801b702   0x0801b702   0x00000002   PAD
    0x0801b704   0x0801b704   0x000000b6   Code   RO         5055    i.scpiParser_detectProgramMessageUnit  parser.o
    0x0801b7ba   0x0801b7ba   0x00000072   Code   RO         5056    i.scpiParser_parseAllProgramData  parser.o
    0x0801b82c   0x0801b82c   0x0000008c   Code   RO         5057    i.scpiParser_parseProgramData  parser.o
    0x0801b8b8   0x0801b8b8   0x0000002c   Code   RO         4756    i.skipAlpha         lexer.o
    0x0801b8e4   0x0801b8e4   0x00000024   Code   RO         4757    i.skipChr           lexer.o
    0x0801b908   0x0801b908   0x00000022   Code   RO         4758    i.skipColon         lexer.o
    0x0801b92a   0x0801b92a   0x00000026   Code   RO         4759    i.skipDigit         lexer.o
    0x0801b950   0x0801b950   0x0000002a   Code   RO         4760    i.skipNumbers       lexer.o
    0x0801b97a   0x0801b97a   0x00000022   Code   RO         4761    i.skipPlusmn        lexer.o
    0x0801b99c   0x0801b99c   0x00000060   Code   RO         4762    i.skipProgramMnemonic  lexer.o
    0x0801b9fc   0x0801b9fc   0x00000052   Code   RO         4763    i.skipQuoteProgramData  lexer.o
    0x0801ba4e   0x0801ba4e   0x00000002   PAD
    0x0801ba50   0x0801ba50   0x00000028   Code   RO         5488    i.skipWhitespace    utils.o
    0x0801ba78   0x0801ba78   0x00000026   Code   RO         4764    i.skipWs            lexer.o
    0x0801ba9e   0x0801ba9e   0x00000014   Code   RO         5489    i.strBaseToInt32    utils.o
    0x0801bab2   0x0801bab2   0x00000016   Code   RO         5490    i.strBaseToInt64    utils.o
    0x0801bac8   0x0801bac8   0x00000014   Code   RO         5491    i.strBaseToUInt32   utils.o
    0x0801badc   0x0801badc   0x00000016   Code   RO         5492    i.strBaseToUInt64   utils.o
    0x0801baf2   0x0801baf2   0x00000016   Code   RO         5493    i.strToDouble       utils.o
    0x0801bb08   0x0801bb08   0x00000014   Code   RO         5494    i.strToFloat        utils.o
    0x0801bb1c   0x0801bb1c   0x0000002a   Code   RO         5495    i.strnpbrk          utils.o
    0x0801bb46   0x0801bb46   0x0000001c   Code   RO         5670    i.strtod            m_ws.l(strtod.o)
    0x0801bb62   0x0801bb62   0x00000014   Code   RO         5674    i.strtof            m_ws.l(strtof.o)
    0x0801bb76   0x0801bb76   0x0000007c   Code   RO         5435    i.transformNumber   units.o
    0x0801bbf2   0x0801bbf2   0x00000002   PAD
    0x0801bbf4   0x0801bbf4   0x000003a0   Code   RO         3963    i.worke_mode        menu.o
    0x0801bf94   0x0801bf94   0x0000000c   Code   RO         5058    i.writeData         parser.o
    0x0801bfa0   0x0801bfa0   0x00000018   Code   RO         5059    i.writeDelimiter    parser.o
    0x0801bfb8   0x0801bfb8   0x00000018   Code   RO         5060    i.writeSemicolon    parser.o
    0x0801bfd0   0x0801bfd0   0x00000005   Data   RO         4134    .constdata          scpi-def.o
    0x0801bfd5   0x0801bfd5   0x00000003   PAD
    0x0801bfd8   0x0801bfd8   0x0000048c   Data   RO         4135    .constdata          scpi-def.o
    0x0801c464   0x0801c464   0x00000036   Data   RO         4437    .constdata          error.o
    0x0801c49a   0x0801c49a   0x00000002   PAD
    0x0801c49c   0x0801c49c   0x00000024   Data   RO         5061    .constdata          parser.o
    0x0801c4c0   0x0801c4c0   0x000001b0   Data   RO         5436    .constdata          units.o
    0x0801c670   0x0801c670   0x00000050   Data   RO         5437    .constdata          units.o
    0x0801c6c0   0x0801c6c0   0x00000081   Data   RO         5683    .constdata          mc_w.l(ctype_o.o)
    0x0801c741   0x0801c741   0x00000003   PAD
    0x0801c744   0x0801c744   0x00000004   Data   RO         5684    .constdata          mc_w.l(ctype_o.o)
    0x0801c748   0x0801c748   0x00000070   Data   RO         4136    .conststring        scpi-def.o
    0x0801c7b8   0x0801c7b8   0x0000057a   Data   RO         4137    .conststring        scpi-def.o
    0x0801cd32   0x0801cd32   0x00000002   PAD
    0x0801cd34   0x0801cd34   0x00000073   Data   RO         5438    .conststring        units.o
    0x0801cda7   0x0801cda7   0x00000001   PAD
    0x0801cda8   0x0801cda8   0x00000041   Data   RO         5439    .conststring        units.o
    0x0801cde9   0x0801cde9   0x00000003   PAD
    0x0801cdec   0x0801cdec   0x00000020   Data   RO         6104    Region$$Table       anon$$obj.o


    Execution Region RW_IRAM1 (Exec base: 0x20000000, Load base: 0x0801ce0c, Size: 0x00001368, Max: 0x00005000, ABSOLUTE, COMPRESSED[0x00000064])

    Exec Addr    Load Addr    Size         Type   Attr      Idx    E Section Name        Object

    0x20000000   COMPRESSED   0x00000014   Data   RW         1702    .data               stm32f10x_rcc.o
    0x20000014   COMPRESSED   0x0000000c   Data   RW         3066    .data               main.o
    0x20000020   COMPRESSED   0x00000004   Data   RW         3067    .data               main.o
    0x20000024   COMPRESSED   0x00000004   Data   RW         3068    .data               main.o
    0x20000028   COMPRESSED   0x0000000c   Data   RW         3265    .data               stm32f10x_it.o
    0x20000034   COMPRESSED   0x00000014   Data   RW         3361    .data               system_stm32f10x.o
    0x20000048   COMPRESSED   0x00000006   Data   RW         3391    .data               adc.o
    0x2000004e   COMPRESSED   0x00000002   Data   RW         3392    .data               adc.o
    0x20000050   COMPRESSED   0x00000002   Data   RW         3393    .data               adc.o
    0x20000052   COMPRESSED   0x00000002   PAD
    0x20000054   COMPRESSED   0x00000004   Data   RW         3460    .data               bsp_systick.o
    0x20000058   COMPRESSED   0x00000001   Data   RW         3497    .data               at24c01.o
    0x20000059   COMPRESSED   0x00000001   Data   RW         3542    .data               clock.o
    0x2000005a   COMPRESSED   0x00000002   PAD
    0x2000005c   COMPRESSED   0x00000038   Data   RW         3763    .data               modbus.o
    0x20000094   COMPRESSED   0x00000008   Data   RW         3853    .data               usart.o
    0x2000009c   COMPRESSED   0x00000001   Data   RW         3854    .data               usart.o
    0x2000009d   COMPRESSED   0x00000001   Data   RW         3855    .data               usart.o
    0x2000009e   COMPRESSED   0x0000000c   Data   RW         3935    .data               fan_pro.o
    0x200000aa   COMPRESSED   0x00000002   PAD
    0x200000ac   COMPRESSED   0x00000008   Data   RW         3964    .data               menu.o
    0x200000b4   COMPRESSED   0x00000003   Data   RW         4015    .data               ad7689.o
    0x200000b7   COMPRESSED   0x00000001   PAD
    0x200000b8   COMPRESSED   0x00000080   Data   RW         4138    .data               scpi-def.o
    0x20000138   COMPRESSED   0x00000014   Data   RW         4139    .data               scpi-def.o
    0x2000014c   COMPRESSED   0x00000004   Data   RW         6054    .data               mc_w.l(errno.o)
    0x20000150        -       0x00000190   Zero   RW         3390    .bss                adc.o
    0x200002e0        -       0x000001e4   Zero   RW         3762    .bss                modbus.o
    0x200004c4        -       0x000000c8   Zero   RW         3850    .bss                usart.o
    0x2000058c        -       0x00000190   Zero   RW         3851    .bss                usart.o
    0x2000071c        -       0x000000c8   Zero   RW         3852    .bss                usart.o
    0x200007e4        -       0x000001c8   Zero   RW         4013    .bss                ad7689.o
    0x200009ac        -       0x00000100   Zero   RW         4131    .bss                scpi-def.o
    0x20000aac        -       0x00000022   Zero   RW         4132    .bss                scpi-def.o
    0x20000ace   COMPRESSED   0x00000002   PAD
    0x20000ad0        -       0x00000098   Zero   RW         4133    .bss                scpi-def.o
    0x20000b68        -       0x00000800   Zero   RW           17    STACK               startup_stm32f10x_hd.o


==============================================================================

Image component sizes


      Code (inc. data)   RO Data    RW Data    ZI Data      Debug   Object Name

       698         40          0          3        456       3970   ad7689.o
       528         22          0         10        400       2597   adc.o
       188          4          0          1          0       1170   at24c01.o
        88         14          0          4          0      16182   bsp_systick.o
       108          6          0          1          0        663   clock.o
         0          0          0          0          0       4588   core_cm3.o
       220          8          0          0          0       1025   dac.o
       846        330         54          0          0       6371   error.o
       400          6          0          0          0      10548   expression.o
       532         36          0         12          0       1618   fan_pro.o
       246          0          0          0          0      10211   fifo.o
      7106         44          0          0          0       5253   flash.o
       156         22          0          0          0        488   gpio.o
       676         16          0          0          0      11252   ieee488.o
       554         32          0          0          0       4484   iic_24c01.o
        34          0          0          0          0        420   iwdg.o
      1998          0          0          0          0      20286   lexer.o
       418         88          0         20          0     231012   main.o
      1364        104          0          8          0       4099   menu.o
       176         10          0          0          0       4089   minimal.o
       140         24          0          0          0     275773   misc.o
     11692        228          0         56        484      21407   modbus.o
      3116        158         36          0          0      37588   parser.o
      3276        572       2683        148        442      40036   scpi-def.o
        36          8        304          0       2048        784   startup_stm32f10x_hd.o
       364         22          0          0          0       7574   stm32f10x_adc.o
       348         18          0          0          0       4465   stm32f10x_dma.o
        44         12          0          0          0        989   stm32f10x_flash.o
       474         34          0          0          0       5250   stm32f10x_gpio.o
      1186        124          0         12          0       7170   stm32f10x_it.o
        68         30          0          0          0       2262   stm32f10x_iwdg.o
       596        106          0         20          0      11382   stm32f10x_rcc.o
        98          0          0          0          0       3598   stm32f10x_spi.o
       198         42          0          0          0       3555   stm32f10x_tim.o
       350          6          0          0          0       6937   stm32f10x_usart.o
       252         30          0         20          0       1669   system_stm32f10x.o
        92          4          0          0          0        942   tim6.o
       564         26        692          0          0       4136   units.o
       916        100          0         10        800       6516   usart.o
      1398         56          0          0          0      21194   utils.o

    ----------------------------------------------------------------------
     41592       2382       3812        332       4632     803553   Object Totals
         0          0         32          0          0          0   (incl. Generated)
        48          0         11          7          2          0   (incl. Padding)

    ----------------------------------------------------------------------

      Code (inc. data)   RO Data    RW Data    ZI Data      Debug   Library Member Name

        88          8          0          0          0         76   frexp.o
       204          4          0          0          0        168   narrow.o
        28          0          0          0          0         80   strtod.o
        20          0          0          0          0         76   strtof.o
        86          0          0          0          0          0   __dczerorl2.o
       144          0          0          0          0         88   __strtoll.o
       124          0          0          0          0         92   __strtoull.o
        28          0          0          0          0         68   _chval.o
        64          0          0          0          0         84   _sgetc.o
       158          0          0          0          0         92   _strtoul.o
       194          0          0          0          0         96   _strtoull.o
         8          4        133          0          0         68   ctype_o.o
         0          0          0          0          0          0   entry.o
         0          0          0          0          0          0   entry10a.o
         0          0          0          0          0          0   entry11a.o
         8          4          0          0          0          0   entry2.o
         4          0          0          0          0          0   entry5.o
         0          0          0          0          0          0   entry7b.o
         0          0          0          0          0          0   entry8b.o
         8          4          0          0          0          0   entry9a.o
        20         10          0          4          0        136   errno.o
        30          0          0          0          0          0   handlers.o
        36          8          0          0          0         68   init.o
        18          0          0          0          0         76   isspace_o.o
         0          0          0          0          0          0   iusefp.o
        30          0          0          0          0         68   llshl.o
        36          0          0          0          0         68   llsshr.o
        32          0          0          0          0         68   llushr.o
        64          0          0          0          0         76   memmovea.o
        36          0          0          0          0        108   memseta.o
      2296         84          0          0          0        520   printfa.o
       878         12          0          0          0        216   scanf_fp.o
        14          0          0          0          0         68   strlen.o
        50          0          0          0          0         84   strncasecmp.o
        40          0          0          0          0         76   strncat.o
        24          0          0          0          0         76   strncpy.o
       156         12          0          0          0        120   strtod.o
        26          0          0          0          0         80   strtof.o
       112          0          0          0          0         88   strtol.o
         4          0          0          0          0         68   strtoll.o
       114          0          0          0          0         92   strtoul.o
         4          0          0          0          0         68   strtoull.o
        12          0          0          0          0         68   tolower.o
        44          0          0          0          0         80   uidiv.o
        98          0          0          0          0         92   uldiv.o
        48          0          0          0          0         68   cdcmple.o
        48          0          0          0          0         68   cdrcmple.o
        20          0          0          0          0         68   cfrcmple.o
        56          0          0          0          0         88   d2f.o
       334          0          0          0          0        148   dadd.o
       222          0          0          0          0        100   ddiv.o
       186          0          0          0          0        176   depilogue.o
        48          0          0          0          0         68   dfixul.o
        24          0          0          0          0         76   dfltul.o
       228          0          0          0          0         96   dmul.o
        46          0          0          0          0         80   dscalb.o
        38          0          0          0          0         68   f2d.o
       176          0          0          0          0        140   fadd.o
       124          0          0          0          0         88   fdiv.o
       110          0          0          0          0        168   fepilogue.o
        40          0          0          0          0         68   ffixui.o
        10          0          0          0          0         68   ffltui.o
       100          0          0          0          0         76   fmul.o
         4          0          0          0          0         68   fpstat.o

    ----------------------------------------------------------------------
      7208        150        136          4          0       5232   Library Totals
         6          0          3          0          0          0   (incl. Padding)

    ----------------------------------------------------------------------

      Code (inc. data)   RO Data    RW Data    ZI Data      Debug   Library Name

       340         12          0          0          0        400   m_ws.l
      5000        138        133          4          0       3052   mc_w.l
      1862          0          0          0          0       1780   mf_w.l

    ----------------------------------------------------------------------
      7208        150        136          4          0       5232   Library Totals

    ----------------------------------------------------------------------

==============================================================================


      Code (inc. data)   RO Data    RW Data    ZI Data      Debug   

     48800       2532       3948        336       4632     788373   Grand Totals
     48800       2532       3948        100       4632     788373   ELF Image Totals (compressed)
     48800       2532       3948        100          0          0   ROM Totals

==============================================================================

    Total RO  Size (Code + RO Data)                52748 (  51.51kB)
    Total RW  Size (RW Data + ZI Data)              4968 (   4.85kB)
    Total ROM Size (Code + RO Data + RW Data)      52848 (  51.61kB)

==============================================================================

